(dp1
I1
(dp2
S'H'
(lp3
S'Linda'
p4
aS'Susan'
p5
aS'Kathleen'
p6
aS'Cheryl'
p7
aS'Mary'
p8
aS'Pamela'
p9
aS'Diane'
p10
aS'Sandra'
p11
aS'Patricia'
p12
aS'Nancy'
p13
aS'Barbara'
p14
aS'Karen'
p15
aS'Carol'
p16
aS'Christine'
p17
aS'Vicki'
p18
aS'Donna'
p19
aS'Diana'
p20
aS'Marsha'
p21
aS'Lynda'
p22
aS'Judy'
p23
asS'W'
(lp24
(I1948
S'WA'
p25
tp26
a(I1948
S'NV'
p27
tp28
a(I1948
S'OR'
p29
tp30
a(I1947
S'UT'
p31
tp32
a(I1948
S'MT'
p33
tp34
a(I1949
g25
tp35
a(I1947
g25
tp36
a(I1949
g29
tp37
a(I1948
g31
tp38
a(I1948
S'IA'
p39
tp40
a(I1949
g27
tp41
a(I1949
S'WY'
p42
tp43
a(I1947
g29
tp44
a(I1948
g42
tp45
a(I1948
S'NE'
p46
tp47
a(I1948
S'CA'
p48
tp49
a(I1949
g33
tp50
a(I1947
g39
tp51
a(I1949
S'MN'
p52
tp53
a(I1947
S'ID'
p54
tp55
assI2
(dp56
S'H'
(lp57
S'Jessica'
p58
aS'Amanda'
p59
aS'Jennifer'
p60
aS'Melissa'
p61
aS'Sarah'
p62
aS'Heather'
p63
aS'Erin'
p64
aS'Rebecca'
p65
aS'Kelly'
p66
aS'Crystal'
p67
aS'Elizabeth'
p68
aS'Kristen'
p69
aS'Erica'
p70
aS'Amy'
p71
aS'Lindsay'
p72
aS'Amber'
p73
aS'Sara'
p74
aS'Stephanie'
p75
aS'Nicole'
p76
aS'Katie'
p77
asS'W'
(lp78
(I1981
S'ME'
p79
tp80
a(I1980
g79
tp81
a(I1981
S'VT'
p82
tp83
a(I1982
g82
tp84
a(I1980
g82
tp85
a(I1982
g79
tp86
a(I1981
S'NH'
p87
tp88
a(I1979
g82
tp89
a(I1979
g79
tp90
a(I1981
S'ND'
p91
tp92
a(I1978
g82
tp93
a(I1981
S'WV'
p94
tp95
a(I1980
g87
tp96
a(I1981
S'RI'
p97
tp98
a(I1982
g87
tp99
a(I1978
g79
tp100
a(I1979
g87
tp101
a(I1980
g94
tp102
a(I1977
g82
tp103
a(I1982
g97
tp104
assI3
(dp105
S'H'
(lp106
S'Dorothy'
p107
ag8
aS'Margaret'
p108
aS'Helen'
p109
aS'Mildred'
p110
aS'Frances'
p111
aS'Virginia'
p112
aS'Ruth'
p113
ag68
aS'Louise'
p114
aS'Thelma'
p115
aS'Doris'
p116
aS'Evelyn'
p117
aS'Marjorie'
p118
aS'Edith'
p119
aS'Catherine'
p120
aS'Edna'
p121
aS'Florence'
p122
aS'Hazel'
p123
aS'Alice'
p124
asS'W'
(lp125
(I1916
S'DC'
p126
tp127
a(I1914
g126
tp128
a(I1912
g126
tp129
a(I1917
g126
tp130
a(I1920
g126
tp131
a(I1917
g27
tp132
a(I1913
g126
tp133
a(I1919
g126
tp134
a(I1915
g126
tp135
a(I1918
g126
tp136
a(I1911
g27
tp137
a(I1912
g42
tp138
a(I1914
g27
tp139
a(I1910
g126
tp140
a(I1911
g126
tp141
a(I1911
g29
tp142
a(I1912
g27
tp143
a(I1915
g27
tp144
a(I1919
g27
tp145
a(I1914
g29
tp146
assI4
(dp147
S'H'
(lp148
S'Madison'
p149
aS'Abigail'
p150
aS'Hannah'
p151
aS'Olivia'
p152
aS'Emma'
p153
aS'Emily'
p154
aS'Grace'
p155
aS'Sydney'
p156
aS'Mackenzie'
p157
aS'Alexis'
p158
aS'Morgan'
p159
aS'Samantha'
p160
aS'Megan'
p161
aS'Lauren'
p162
aS'Haley'
p163
ag68
aS'Brianna'
p164
aS'Sophia'
p165
ag62
aS'Chloe'
p166
asS'W'
(lp167
(I2003
g82
tp168
a(I2002
g82
tp169
a(I2001
g79
tp170
a(I2003
g79
tp171
a(I2000
g82
tp172
a(I2002
g87
tp173
a(I2004
g82
tp174
a(I2001
g87
tp175
a(I2000
g87
tp176
a(I2003
g87
tp177
a(I2004
g87
tp178
a(I2002
g79
tp179
a(I2001
g82
tp180
a(I1999
g87
tp181
a(I2000
g79
tp182
a(I2004
g79
tp183
a(I2005
g79
tp184
a(I2001
S'MA'
p185
tp186
a(I1999
g79
tp187
a(I2001
g52
tp188
assI5
(dp189
S'H'
(lp190
S'Lisa'
p191
aS'Kimberly'
p192
aS'Michelle'
p193
aS'Tammy'
p194
ag66
aS'Dawn'
p195
aS'Tracy'
p196
aS'Tina'
p197
aS'Michele'
p198
ag17
ag15
aS'Lori'
p199
ag9
aS'Wendy'
p200
aS'Deborah'
p201
aS'Laura'
p202
aS'Julie'
p203
aS'Jill'
p204
aS'Brenda'
p205
ag61
asS'W'
(lp206
(I1967
g97
tp207
a(I1966
S'DE'
p208
tp209
a(I1968
g97
tp210
a(I1966
g97
tp211
a(I1967
g185
tp212
a(I1966
S'CT'
p213
tp214
a(I1967
g213
tp215
a(I1966
S'MI'
p216
tp217
a(I1967
g87
tp218
a(I1966
g79
tp219
a(I1968
g185
tp220
a(I1966
g185
tp221
a(I1966
g87
tp222
a(I1967
g216
tp223
a(I1967
g52
tp224
a(I1966
S'PA'
p225
tp226
a(I1967
g225
tp227
a(I1968
S'WI'
p228
tp229
a(I1966
g82
tp230
a(I1967
g228
tp231
assI6
(dp232
S'H'
(lp233
S'Joan'
p234
ag14
ag12
aS'Dolores'
p235
aS'Shirley'
p236
ag8
aS'Jean'
p237
ag13
aS'Marilyn'
p238
aS'Gloria'
p239
aS'Beverly'
p240
aS'Janet'
p241
aS'Joyce'
p242
aS'Ann'
p243
ag108
aS'Lorraine'
p244
aS'Phyllis'
p245
ag16
aS'Lois'
p246
aS'Marie'
p247
asS'W'
(lp248
(I1934
S'NJ'
p249
tp250
a(I1935
g249
tp251
a(I1933
g249
tp252
a(I1932
g249
tp253
a(I1936
g249
tp254
a(I1932
S'NY'
p255
tp256
a(I1932
g213
tp257
a(I1933
g213
tp258
a(I1934
g97
tp259
a(I1933
g255
tp260
a(I1934
g255
tp261
a(I1937
g249
tp262
a(I1934
g213
tp263
a(I1931
g255
tp264
a(I1931
g249
tp265
a(I1935
g97
tp266
a(I1935
g255
tp267
a(I1932
g185
tp268
a(I1933
g185
tp269
a(I1936
g97
tp270
assI7
(dp271
S'H'
(lp272
g8
aS'Willie'
p273
aS'Annie'
p274
aS'Mattie'
p275
aS'Lillie'
p276
aS'Ruby'
p277
ag114
aS'Bessie'
p278
aS'Minnie'
p279
aS'Ethel'
p280
aS'Hattie'
p281
aS'Mamie'
p282
aS'Lula'
p283
aS'Fannie'
p284
aS'Essie'
p285
aS'Gladys'
p286
ag110
aS'Rosa'
p287
ag62
ag121
asS'W'
(lp288
(I1910
S'GA'
p289
tp290
a(I1911
g289
tp291
a(I1912
g289
tp292
a(I1910
S'AL'
p293
tp294
a(I1911
S'MS'
p295
tp296
a(I1914
g289
tp297
a(I1910
g295
tp298
a(I1913
g289
tp299
a(I1912
g295
tp300
a(I1911
g293
tp301
a(I1912
g293
tp302
a(I1914
g295
tp303
a(I1915
g289
tp304
a(I1913
g293
tp305
a(I1917
g295
tp306
a(I1913
g295
tp307
a(I1918
g295
tp308
a(I1919
g295
tp309
a(I1916
g289
tp310
a(I1914
g293
tp311
assI8
(dp312
S'H'
(lp313
S'Betty'
p314
ag236
ag14
ag8
aS'Patsy'
p315
aS'Peggy'
p316
ag107
ag242
ag116
ag12
aS'Carolyn'
p317
ag13
aS'Wanda'
p318
aS'Jo'
p319
aS'Martha'
p320
aS'Norma'
p321
aS'Bobbie'
p322
ag111
aS'Wilma'
p323
aS'Billie'
p324
asS'W'
(lp325
(I1938
S'TN'
p326
tp327
a(I1935
S'OK'
p328
tp329
a(I1937
g326
tp330
a(I1936
g326
tp331
a(I1936
g328
tp332
a(I1938
S'AR'
p333
tp334
a(I1939
g326
tp335
a(I1936
S'NC'
p336
tp337
a(I1935
g336
tp338
a(I1937
g333
tp339
a(I1936
g333
tp340
a(I1939
g333
tp341
a(I1935
g326
tp342
a(I1935
S'TX'
p343
tp344
a(I1937
g328
tp345
a(I1937
g336
tp346
a(I1936
S'VA'
p347
tp348
a(I1940
g333
tp349
a(I1938
g347
tp350
a(I1938
g336
tp351
assI9
(dp352
S'H'
(lp353
S'Harper'
p354
aS'Avery'
p355
aS'Zoey'
p356
ag165
aS'Paisley'
p357
ag152
aS'Aria'
p358
aS'Ava'
p359
ag153
aS'Brooklyn'
p360
aS'Aubrey'
p361
aS'Hadley'
p362
aS'Aubree'
p363
aS'Piper'
p364
aS'Scarlett'
p365
aS'Isabella'
p366
aS'Amelia'
p367
aS'Mila'
p368
aS'Layla'
p369
aS'Addison'
p370
asS'W'
(lp371
(I2014
g91
tp372
a(I2014
g46
tp373
a(I2014
g39
tp374
a(I2014
g33
tp375
a(I2013
g39
tp376
a(I2013
g91
tp377
a(I2014
S'KS'
p378
tp379
a(I2013
g33
tp380
a(I2014
S'SD'
p381
tp382
a(I2014
g54
tp383
a(I2013
g381
tp384
a(I2013
g46
tp385
a(I2014
g52
tp386
a(I2014
g228
tp387
a(I2014
g42
tp388
a(I2014
S'MO'
p389
tp390
a(I2014
S'AK'
p391
tp392
a(I2014
S'IN'
p393
tp394
a(I2013
g42
tp395
a(I2014
g328
tp396
assI10
(dp397
S'H'
(lp398
S'Judith'
p399
ag16
ag12
ag11
ag14
ag13
ag8
ag10
aS'Gail'
p400
ag5
ag234
ag242
aS'Carole'
p401
aS'Joanne'
p402
aS'Elaine'
p403
ag241
ag6
aS'Janice'
p404
aS'Maureen'
p405
ag19
asS'W'
(lp406
(I1942
g185
tp407
a(I1941
g185
tp408
a(I1940
g185
tp409
a(I1943
g185
tp410
a(I1942
g87
tp411
a(I1944
g97
tp412
a(I1944
g185
tp413
a(I1941
g87
tp414
a(I1942
g97
tp415
a(I1943
g97
tp416
a(I1945
g185
tp417
a(I1939
g185
tp418
a(I1943
g87
tp419
a(I1941
g213
tp420
a(I1940
g213
tp421
a(I1945
g97
tp422
a(I1940
g87
tp423
a(I1941
g97
tp424
a(I1939
g87
tp425
a(I1942
g213
tp426
assI11
(dp427
S'H'
(lp428
g191
aS'Debbie'
p429
ag194
aS'Kathy'
p430
aS'Teresa'
p431
ag15
ag19
ag9
aS'Cynthia'
p432
aS'Cindy'
p433
aS'Robin'
p434
aS'Debra'
p435
ag7
ag205
aS'Kim'
p436
aS'Cathy'
p437
aS'Sharon'
p438
ag201
aS'Terri'
p439
aS'Rhonda'
p440
asS'W'
(lp441
(I1959
g328
tp442
a(I1960
g326
tp443
a(I1959
S'KY'
p444
tp445
a(I1960
g444
tp446
a(I1960
g94
tp447
a(I1959
g326
tp448
a(I1960
g328
tp449
a(I1959
g94
tp450
a(I1961
g94
tp451
a(I1962
g326
tp452
a(I1961
g326
tp453
a(I1961
g328
tp454
a(I1961
g444
tp455
a(I1962
g333
tp456
a(I1960
g336
tp457
a(I1962
g444
tp458
a(I1962
g328
tp459
a(I1960
g333
tp460
a(I1958
g328
tp461
a(I1961
g336
tp462
assI12
(dp463
S'H'
(lp464
g8
aS'Opal'
p465
ag277
ag110
ag115
ag123
ag286
aS'Pauline'
p466
ag121
aS'Juanita'
p467
ag323
aS'Beulah'
p468
aS'Anna'
p469
ag112
aS'Myrtle'
p470
ag113
ag278
aS'Velma'
p471
ag280
ag119
asS'W'
(lp472
(I1915
g328
tp473
a(I1911
g328
tp474
a(I1914
g328
tp475
a(I1917
g328
tp476
a(I1916
g328
tp477
a(I1919
g328
tp478
a(I1918
g328
tp479
a(I1913
g328
tp480
a(I1912
g328
tp481
a(I1912
g94
tp482
a(I1911
g94
tp483
a(I1920
g328
tp484
a(I1910
g328
tp485
a(I1913
g94
tp486
a(I1921
g328
tp487
a(I1910
g94
tp488
a(I1914
g94
tp489
a(I1915
g94
tp490
a(I1922
g328
tp491
a(I1916
g94
tp492
assI13
(dp493
S'H'
(lp494
g366
aS'Camila'
p495
aS'Mia'
p496
aS'Sofia'
p497
ag165
aS'Genesis'
p498
aS'Valeria'
p499
aS'Alexa'
p500
aS'Ximena'
p501
ag154
aS'Giselle'
p502
aS'Aaliyah'
p503
aS'Natalia'
p504
ag150
aS'Nevaeh'
p505
aS'Zoe'
p506
aS'Bella'
p507
ag160
ag192
aS'Daniela'
p508
asS'W'
(lp509
(I2011
g48
tp510
a(I2012
g48
tp511
a(I2013
g48
tp512
a(I2010
g48
tp513
a(I2014
g48
tp514
a(I2009
g48
tp515
a(I2011
g343
tp516
a(I2008
g48
tp517
a(I2013
g343
tp518
a(I2010
g343
tp519
a(I2012
g343
tp520
a(I2009
g343
tp521
a(I2014
g343
tp522
a(I2010
S'AZ'
p523
tp524
a(I2009
g523
tp525
a(I2012
S'NM'
p526
tp527
a(I2008
g343
tp528
a(I2011
g523
tp529
a(I2007
g48
tp530
a(I2008
g523
tp531
assI14
(dp532
S'H'
(lp533
S'Angela'
p534
ag194
ag192
ag191
ag61
aS'Tonya'
p535
ag440
ag196
ag75
ag9
ag197
ag431
ag432
ag19
ag71
ag193
aS'Sherry'
p536
ag438
ag8
aS'Shannon'
p537
asS'W'
(lp538
(I1970
g326
tp539
a(I1970
g293
tp540
a(I1971
g326
tp541
a(I1969
g326
tp542
a(I1970
g333
tp543
a(I1971
S'SC'
p544
tp545
a(I1969
g293
tp546
a(I1968
g326
tp547
a(I1970
g295
tp548
a(I1970
g544
tp549
a(I1970
g336
tp550
a(I1971
g333
tp551
a(I1969
g544
tp552
a(I1968
g333
tp553
a(I1971
g295
tp554
a(I1969
g333
tp555
a(I1969
g295
tp556
a(I1969
g336
tp557
a(I1972
g544
tp558
a(I1971
g293
tp559
assI15
(dp560
S'H'
(lp561
g314
ag107
ag8
ag116
ag237
ag246
ag112
ag321
ag109
ag118
ag235
ag245
aS'June'
p562
ag323
ag108
aS'Geraldine'
p563
ag117
aS'Maxine'
p564
ag239
ag113
asS'W'
(lp565
(I1926
g393
tp566
a(I1925
g393
tp567
a(I1924
g46
tp568
a(I1924
g393
tp569
a(I1927
g393
tp570
a(I1925
g46
tp571
a(I1925
g378
tp572
a(I1927
g378
tp573
a(I1930
g94
tp574
a(I1925
g39
tp575
a(I1928
g94
tp576
a(I1926
g46
tp577
a(I1929
g94
tp578
a(I1924
g378
tp579
a(I1926
g378
tp580
a(I1927
g46
tp581
a(I1924
g39
tp582
a(I1926
g39
tp583
a(I1928
g46
tp584
a(I1925
S'OH'
p585
tp586
assI16
(dp587
S'H'
(lp588
g149
aS'Taylor'
p589
aS'Bailey'
p590
ag151
aS'Sierra'
p591
aS'Hailey'
p592
ag158
ag156
ag161
ag160
aS'Ashley'
p593
aS'Mckenzie'
p594
ag159
aS'Kaylee'
p595
aS'Makayla'
p596
ag58
aS'Alyssa'
p597
aS'Kaitlyn'
p598
aS'Mariah'
p599
aS'Jordan'
p600
asS'W'
(lp601
(I1996
g31
tp602
a(I1997
g31
tp603
a(I1998
g31
tp604
a(I1997
g54
tp605
a(I1995
g31
tp606
a(I1996
g54
tp607
a(I1998
g54
tp608
a(I1998
g42
tp609
a(I1999
g33
tp610
a(I1997
g33
tp611
a(I1998
g33
tp612
a(I1998
g91
tp613
a(I1999
g42
tp614
a(I1994
g31
tp615
a(I2000
g33
tp616
a(I1997
g91
tp617
a(I1999
g31
tp618
a(I1999
g54
tp619
a(I1996
g33
tp620
a(I2000
g42
tp621
assI17
(dp622
S'H'
(lp623
g8
aS'Maria'
p624
aS'Lupe'
p625
aS'Carmen'
p626
ag111
aS'Josephine'
p627
aS'Consuelo'
p628
ag235
aS'Guadalupe'
p629
aS'Margarita'
p630
ag467
aS'Isabel'
p631
aS'Socorro'
p632
aS'Antonia'
p633
aS'Dora'
p634
aS'Elvira'
p635
aS'Lucy'
p636
aS'Manuela'
p637
aS'Aurora'
p638
aS'Ramona'
p639
asS'W'
(lp640
(I1926
g523
tp641
a(I1918
g523
tp642
a(I1924
g523
tp643
a(I1925
g523
tp644
a(I1921
g523
tp645
a(I1920
g523
tp646
a(I1927
g523
tp647
a(I1923
g523
tp648
a(I1917
g523
tp649
a(I1929
g523
tp650
a(I1919
g523
tp651
a(I1926
g526
tp652
a(I1922
g523
tp653
a(I1925
g526
tp654
a(I1919
g526
tp655
a(I1920
g526
tp656
a(I1928
g523
tp657
a(I1923
g526
tp658
a(I1928
g526
tp659
a(I1930
g523
tp660
assI18
(dp661
S'H'
(lp662
g435
ag201
ag9
ag432
ag5
ag430
ag8
aS'Vickie'
p663
ag18
ag15
ag7
ag12
ag65
ag440
ag13
ag431
aS'Connie'
p664
ag241
ag437
ag316
asS'W'
(lp665
(I1955
g54
tp666
a(I1954
g378
tp667
a(I1955
g378
tp668
a(I1955
g39
tp669
a(I1953
g378
tp670
a(I1954
g31
tp671
a(I1954
g54
tp672
a(I1953
g54
tp673
a(I1954
g39
tp674
a(I1954
g46
tp675
a(I1953
g31
tp676
a(I1955
g46
tp677
a(I1956
g39
tp678
a(I1955
g31
tp679
a(I1954
g42
tp680
a(I1956
g378
tp681
a(I1955
g393
tp682
a(I1955
g328
tp683
a(I1953
g42
tp684
a(I1954
g29
tp685
assI19
(dp686
S'H'
(lp687
g199
ag203
ag433
ag205
aS'Laurie'
p688
ag5
aS'Shelly'
p689
ag436
ag193
ag429
ag8
ag10
aS'Tamara'
p690
aS'Becky'
p691
ag435
aS'Denise'
p692
aS'Tami'
p693
ag204
ag430
ag13
asS'W'
(lp694
(I1960
g31
tp695
a(I1960
g54
tp696
a(I1958
g31
tp697
a(I1959
g31
tp698
a(I1961
g91
tp699
a(I1961
g31
tp700
a(I1962
g54
tp701
a(I1962
g91
tp702
a(I1962
g31
tp703
a(I1962
g381
tp704
a(I1960
g33
tp705
a(I1961
g54
tp706
a(I1960
g91
tp707
a(I1959
g91
tp708
a(I1964
g91
tp709
a(I1961
g381
tp710
a(I1964
g54
tp711
a(I1963
g31
tp712
a(I1963
g381
tp713
a(I1961
g39
tp714
assI20
(dp715
S'H'
(lp716
g438
ag23
ag15
ag16
ag399
ag14
ag11
ag8
ag12
ag241
ag404
ag317
ag238
ag13
aS'Kay'
p717
ag664
aS'Bonnie'
p718
ag19
ag242
aS'Darlene'
p719
asS'W'
(lp720
(I1942
g381
tp721
a(I1941
g46
tp722
a(I1942
g54
tp723
a(I1942
g46
tp724
a(I1943
g33
tp725
a(I1943
g46
tp726
a(I1943
g378
tp727
a(I1940
g46
tp728
a(I1942
g42
tp729
a(I1941
g42
tp730
a(I1941
g381
tp731
a(I1942
g33
tp732
a(I1941
g39
tp733
a(I1941
g54
tp734
a(I1943
g381
tp735
a(I1942
g25
tp736
a(I1940
g54
tp737
a(I1942
g378
tp738
a(I1942
g39
tp739
a(I1943
g25
tp740
assI21
(dp741
S'H'
(lp742
S'Brittany'
p743
ag593
ag58
ag162
aS'Jasmine'
p744
aS'Tiffany'
p745
ag73
aS'Courtney'
p746
aS'Brittney'
p747
aS'Whitney'
p748
aS'Kayla'
p749
aS'Chelsea'
p750
ag63
ag160
ag161
ag59
ag70
ag62
ag69
ag75
asS'W'
(lp751
(I1989
g336
tp752
a(I1989
g544
tp753
a(I1989
g295
tp754
a(I1989
S'LA'
p755
tp756
a(I1990
g295
tp757
a(I1990
g336
tp758
a(I1990
g544
tp759
a(I1990
g755
tp760
a(I1989
g289
tp761
a(I1989
g293
tp762
a(I1990
g289
tp763
a(I1990
g293
tp764
a(I1991
g295
tp765
a(I1991
g336
tp766
a(I1989
g126
tp767
a(I1991
g544
tp768
a(I1993
g295
tp769
a(I1990
g126
tp770
a(I1989
g326
tp771
a(I1990
g326
tp772
assI22
(dp773
S'H'
(lp774
S'Yoshiko'
p775
aS'Shizue'
p776
aS'Haruko'
p777
aS'Shizuko'
p778
aS'Masako'
p779
aS'Kiyoko'
p780
aS'Chiyoko'
p781
aS'Yoshie'
p782
aS'Fumiko'
p783
aS'Mitsuko'
p784
aS'Mitsue'
p785
aS'Yaeko'
p786
aS'Kikue'
p787
aS'Toshiko'
p788
ag122
aS'Violet'
p789
ag110
aS'Sadako'
p790
aS'Sueko'
p791
aS'Miyoko'
p792
asS'W'
(lp793
(I1920
S'HI'
p794
tp795
a(I1922
g794
tp796
a(I1919
g794
tp797
a(I1918
g794
tp798
a(I1921
g794
tp799
a(I1923
g794
tp800
a(I1917
g794
tp801
a(I1924
g794
tp802
a(I1925
g794
tp803
a(I1926
g794
tp804
a(I1915
g794
tp805
a(I1916
g794
tp806
a(I1927
g794
tp807
a(I1929
g794
tp808
a(I1928
g794
tp809
a(I1914
g794
tp810
a(I1913
g794
tp811
a(I1930
g794
tp812
a(I1931
g794
tp813
a(I1912
g794
tp814
assI23
(dp815
S'H'
(lp816
g201
ag438
ag19
ag12
ag15
ag205
ag5
ag10
ag692
ag9
ag400
ag432
ag4
ag14
ag719
ag430
ag434
ag437
aS'Sheila'
p817
ag318
asS'W'
(lp818
(I1953
g208
tp819
a(I1952
S'MD'
p820
tp821
a(I1955
g820
tp822
a(I1953
g820
tp823
a(I1954
g820
tp824
a(I1951
g208
tp825
a(I1954
g126
tp826
a(I1952
g126
tp827
a(I1953
g126
tp828
a(I1951
g820
tp829
a(I1956
g126
tp830
a(I1955
g126
tp831
a(I1954
g208
tp832
a(I1956
g820
tp833
a(I1952
g208
tp834
a(I1952
g97
tp835
a(I1953
g97
tp836
a(I1951
g126
tp837
a(I1954
g97
tp838
a(I1953
g213
tp839
assI24
(dp840
S'H'
(lp841
g236
ag19
ag240
ag238
ag719
ag8
aS'Delores'
p842
ag16
aS'Marlene'
p843
ag242
ag246
ag245
ag12
ag404
aS'Arlene'
p844
aS'Marlys'
p845
ag402
aS'Joann'
p846
ag234
aS'Lavonne'
p847
asS'W'
(lp848
(I1935
g381
tp849
a(I1935
g91
tp850
a(I1936
g91
tp851
a(I1936
g381
tp852
a(I1934
g91
tp853
a(I1937
g91
tp854
a(I1934
g381
tp855
a(I1937
g381
tp856
a(I1932
g381
tp857
a(I1935
g52
tp858
a(I1933
g381
tp859
a(I1932
g91
tp860
a(I1935
g39
tp861
a(I1936
g52
tp862
a(I1933
g91
tp863
a(I1938
g91
tp864
a(I1935
g46
tp865
a(I1931
g381
tp866
a(I1934
g52
tp867
a(I1935
g33
tp868
assI25
(dp869
S'H'
(lp870
g593
ag58
ag59
ag161
ag73
aS'Lindsey'
p871
ag60
ag745
ag63
ag75
ag72
aS'Danielle'
p872
ag67
ag76
aS'Sheena'
p873
ag162
ag62
aS'Rachel'
p874
aS'Jenna'
p875
aS'Krystal'
p876
asS'W'
(lp877
(I1983
g755
tp878
a(I1985
g378
tp879
a(I1984
g39
tp880
a(I1984
g755
tp881
a(I1985
g389
tp882
a(I1984
g378
tp883
a(I1985
g39
tp884
a(I1984
g94
tp885
a(I1984
g544
tp886
a(I1984
g389
tp887
a(I1985
g393
tp888
a(I1984
g46
tp889
a(I1985
g755
tp890
a(I1985
g46
tp891
a(I1984
g393
tp892
a(I1986
g794
tp893
a(I1983
g378
tp894
a(I1986
g389
tp895
a(I1983
g544
tp896
a(I1984
g328
tp897
assI26
(dp898
S'H'
(lp899
g4
ag205
ag23
ag11
ag8
ag317
ag12
ag239
ag19
ag404
aS'Glenda'
p900
ag318
ag242
ag14
ag245
ag320
ag438
ag240
ag65
ag536
asS'W'
(lp901
(I1949
g326
tp902
a(I1948
g326
tp903
a(I1947
g326
tp904
a(I1950
g326
tp905
a(I1948
g336
tp906
a(I1947
g336
tp907
a(I1949
g336
tp908
a(I1950
g336
tp909
a(I1946
g326
tp910
a(I1951
g326
tp911
a(I1948
g444
tp912
a(I1950
g293
tp913
a(I1949
g293
tp914
a(I1946
g336
tp915
a(I1950
g333
tp916
a(I1950
g444
tp917
a(I1949
g333
tp918
a(I1949
g444
tp919
a(I1951
g333
tp920
a(I1947
g444
tp921
assI27
(dp922
S'H'
(lp923
g466
aS'Rita'
p924
ag116
aS'Marion'
p925
ag107
ag14
aS'Irene'
p926
ag244
aS'Cecile'
p927
ag236
ag245
aS'Theresa'
p928
ag118
ag113
aS'Muriel'
p929
aS'Lucille'
p930
aS'Eleanor'
p931
aS'Jeannette'
p932
aS'Beatrice'
p933
aS'Claire'
p934
asS'W'
(lp935
(I1927
g87
tp936
a(I1926
g87
tp937
a(I1928
g87
tp938
a(I1929
g87
tp939
a(I1925
g87
tp940
a(I1924
g87
tp941
a(I1923
g87
tp942
a(I1930
g87
tp943
a(I1931
g87
tp944
a(I1922
g87
tp945
a(I1921
g87
tp946
a(I1926
g79
tp947
a(I1924
g79
tp948
a(I1927
g79
tp949
a(I1925
g79
tp950
a(I1923
g79
tp951
a(I1920
g87
tp952
a(I1932
g87
tp953
a(I1928
g79
tp954
a(I1922
g79
tp955
assI28
(dp956
S'H'
(lp957
g149
ag370
ag166
ag359
aS'London'
p958
ag366
ag369
aS'Khloe'
p959
aS'Trinity'
p960
ag596
ag505
ag153
aS'Serenity'
p961
ag361
aS'Kennedy'
p962
ag360
aS'Londyn'
p963
ag150
aS'Aniyah'
p964
ag595
asS'W'
(lp965
(I2011
g295
tp966
a(I2013
g295
tp967
a(I2012
g295
tp968
a(I2010
g295
tp969
a(I2014
g295
tp970
a(I2009
g295
tp971
a(I2010
g755
tp972
a(I2011
g755
tp973
a(I2012
g755
tp974
a(I2012
g293
tp975
a(I2008
g295
tp976
a(I2011
g289
tp977
a(I2011
g293
tp978
a(I2009
g755
tp979
a(I2013
g293
tp980
a(I2013
g755
tp981
a(I2014
g293
tp982
a(I2012
g289
tp983
a(I2010
g289
tp984
a(I2013
g289
tp985
assI29
(dp986
S'H'
(lp987
g366
ag359
aS'Gianna'
p988
ag165
ag496
ag152
aS'Gabriella'
p989
ag149
ag497
ag150
ag153
aS'Arianna'
p990
ag160
ag749
ag164
ag154
ag500
aS'Maya'
p991
aS'Angelina'
p992
aS'Juliana'
p993
asS'W'
(lp994
(I2007
g249
tp995
a(I2008
g249
tp996
a(I2006
g249
tp997
a(I2009
g249
tp998
a(I2010
g249
tp999
a(I2005
g249
tp1000
a(I2011
g249
tp1001
a(I2012
g249
tp1002
a(I2013
g249
tp1003
a(I2014
g249
tp1004
a(I2008
g255
tp1005
a(I2007
g255
tp1006
a(I2006
g255
tp1007
a(I2010
g213
tp1008
a(I2009
g255
tp1009
a(I2004
g249
tp1010
a(I2010
g255
tp1011
a(I2005
g255
tp1012
a(I2011
g213
tp1013
a(I2011
g255
tp1014
assI30
(dp1015
S'H'
(lp1016
g60
ag63
ag193
ag71
ag61
ag192
ag76
ag537
ag195
ag75
ag196
ag65
aS'Tara'
p1017
aS'Stacy'
p1018
aS'Tanya'
p1019
aS'Stacey'
p1020
ag194
ag17
aS'Christina'
p1021
ag534
asS'W'
(lp1022
(I1973
g87
tp1023
a(I1974
g208
tp1024
a(I1972
g87
tp1025
a(I1972
g213
tp1026
a(I1973
g208
tp1027
a(I1973
g213
tp1028
a(I1973
g225
tp1029
a(I1973
g97
tp1030
a(I1974
g213
tp1031
a(I1972
g225
tp1032
a(I1972
g97
tp1033
a(I1972
g391
tp1034
a(I1973
g79
tp1035
a(I1973
g381
tp1036
a(I1973
g185
tp1037
a(I1972
g185
tp1038
a(I1972
g249
tp1039
a(I1972
g27
tp1040
a(I1974
g87
tp1041
a(I1972
g208
tp1042
assI31
(dp1043
S'H'
(lp1044
g589
ag159
ag158
ag749
aS'Kelsey'
p1045
ag163
aS'Shelby'
p1046
ag164
ag154
ag746
ag151
ag160
ag161
ag599
ag598
ag73
ag744
ag600
aS'Brooke'
p1047
ag874
asS'W'
(lp1048
(I1997
g208
tp1049
a(I1994
g208
tp1050
a(I1994
g381
tp1051
a(I1993
g378
tp1052
a(I1994
g46
tp1053
a(I1994
g755
tp1054
a(I1993
g46
tp1055
a(I1994
g393
tp1056
a(I1994
g91
tp1057
a(I1996
g208
tp1058
a(I1993
g393
tp1059
a(I1995
g755
tp1060
a(I1995
g208
tp1061
a(I1994
g585
tp1062
a(I1995
g381
tp1063
a(I1993
g755
tp1064
a(I1995
g585
tp1065
a(I1996
g79
tp1066
a(I1993
g381
tp1067
a(I1993
g42
tp1068
assI32
(dp1069
S'H'
(lp1070
g370
ag359
ag366
ag165
ag505
ag166
ag149
ag152
aS'Lily'
p1071
ag150
aS'Ella'
p1072
aS'Peyton'
p1073
ag355
ag361
ag153
ag158
ag592
ag356
aS'Riley'
p1074
ag360
asS'W'
(lp1075
(I2010
g82
tp1076
a(I2008
g91
tp1077
a(I2009
g79
tp1078
a(I2009
g82
tp1079
a(I2007
g39
tp1080
a(I2007
g46
tp1081
a(I2008
g39
tp1082
a(I2008
g87
tp1083
a(I2012
g82
tp1084
a(I2008
g381
tp1085
a(I2011
g79
tp1086
a(I2008
g46
tp1087
a(I2007
g82
tp1088
a(I2009
g87
tp1089
a(I2010
g79
tp1090
a(I2009
g91
tp1091
a(I2010
g94
tp1092
a(I2008
g79
tp1093
a(I2009
g42
tp1094
a(I2009
g33
tp1095
assI33
(dp1096
S'H'
(lp1097
g8
ag109
ag469
ag122
aS'Rose'
p1098
ag107
ag113
ag108
ag627
ag110
aS'Gertrude'
p1099
ag247
ag931
aS'Lillian'
p1100
ag120
ag68
ag925
ag280
ag933
ag926
asS'W'
(lp1101
(I1914
g255
tp1102
a(I1910
g255
tp1103
a(I1912
g255
tp1104
a(I1913
g255
tp1105
a(I1916
g249
tp1106
a(I1915
g255
tp1107
a(I1915
g249
tp1108
a(I1913
g249
tp1109
a(I1916
g255
tp1110
a(I1917
g249
tp1111
a(I1914
g249
tp1112
a(I1917
g255
tp1113
a(I1911
g255
tp1114
a(I1910
g249
tp1115
a(I1919
g249
tp1116
a(I1912
g249
tp1117
a(I1918
g249
tp1118
a(I1911
g249
tp1119
a(I1918
g255
tp1120
a(I1916
g213
tp1121
assI34
(dp1122
S'H'
(lp1123
g60
ag59
ag192
aS'April'
p1124
aS'Brandy'
p1125
ag67
ag745
ag71
ag63
aS'Latoya'
p1126
aS'Misty'
p1127
ag534
aS'Christy'
p1128
aS'Brandi'
p1129
aS'Latasha'
p1130
ag535
ag593
ag75
ag66
aS'Latonya'
p1131
asS'W'
(lp1132
(I1978
g295
tp1133
a(I1979
g295
tp1134
a(I1977
g295
tp1135
a(I1978
g293
tp1136
a(I1980
g295
tp1137
a(I1981
g295
tp1138
a(I1979
g293
tp1139
a(I1977
g293
tp1140
a(I1976
g295
tp1141
a(I1980
g293
tp1142
a(I1978
g289
tp1143
a(I1978
g544
tp1144
a(I1979
g544
tp1145
a(I1977
g544
tp1146
a(I1982
g295
tp1147
a(I1976
g293
tp1148
a(I1979
g289
tp1149
a(I1977
g289
tp1150
a(I1980
g289
tp1151
a(I1981
g293
tp1152
assI35
(dp1153
S'H'
(lp1154
S'Malia'
p1155
aS'Leilani'
p1156
aS'Maile'
p1157
aS'Tiare'
p1158
aS'Kiana'
p1159
aS'Anela'
p1160
aS'Tehani'
p1161
aS'Mahealani'
p1162
ag749
aS'Noelani'
p1163
ag744
aS'Tiana'
p1164
aS'Mahina'
p1165
aS'Kalena'
p1166
ag76
aS'Kamalani'
p1167
ag166
aS'Anuhea'
p1168
aS'Kanani'
p1169
aS'Kahealani'
p1170
asS'W'
(lp1171
(I2002
g794
tp1172
a(I2006
g794
tp1173
a(I2003
g794
tp1174
a(I2007
g794
tp1175
a(I1999
g794
tp1176
a(I2000
g794
tp1177
a(I2005
g794
tp1178
a(I2001
g794
tp1179
a(I2004
g794
tp1180
a(I1998
g794
tp1181
a(I2008
g794
tp1182
a(I1997
g794
tp1183
a(I1996
g794
tp1184
a(I2009
g794
tp1185
a(I1995
g794
tp1186
a(I2011
g794
tp1187
a(I2010
g794
tp1188
a(I2012
g794
tp1189
a(I1994
g794
tp1190
a(I1993
g794
tp1191
assI36
(dp1192
S'H'
(lp1193
g593
ag58
aS'Vanessa'
p1194
ag160
ag597
aS'Angelica'
p1195
aS'Gabriela'
p1196
ag744
aS'Alejandra'
p1197
ag164
ag75
aS'Karina'
p1198
ag60
ag158
aS'Adriana'
p1199
ag624
aS'Yesenia'
p1200
aS'Alexandra'
p1201
aS'Marissa'
p1202
aS'Ana'
p1203
asS'W'
(lp1204
(I1996
g48
tp1205
a(I1997
g48
tp1206
a(I1998
g48
tp1207
a(I1995
g48
tp1208
a(I1999
g48
tp1209
a(I1994
g48
tp1210
a(I2000
g48
tp1211
a(I1993
g48
tp1212
a(I2001
g48
tp1213
a(I1992
g48
tp1214
a(I1998
g526
tp1215
a(I1998
g523
tp1216
a(I1999
g523
tp1217
a(I2002
g48
tp1218
a(I1999
g526
tp1219
a(I1997
g523
tp1220
a(I1991
g48
tp1221
a(I2000
g523
tp1222
a(I1996
g526
tp1223
a(I1996
g523
tp1224
assI37
(dp1225
S'H'
(lp1226
g624
aS'Yolanda'
p1227
ag432
ag11
ag12
aS'Veronica'
p1228
aS'Monica'
p1229
ag239
aS'Yvonne'
p1230
ag68
aS'Sylvia'
p1231
ag20
ag193
ag202
aS'Leticia'
p1232
aS'Yvette'
p1233
aS'Bernadette'
p1234
ag1021
ag75
ag4
asS'W'
(lp1235
(I1968
g526
tp1236
a(I1967
g526
tp1237
a(I1966
g526
tp1238
a(I1971
g526
tp1239
a(I1965
g526
tp1240
a(I1969
g526
tp1241
a(I1964
g526
tp1242
a(I1969
g343
tp1243
a(I1973
g343
tp1244
a(I1971
g343
tp1245
a(I1970
g343
tp1246
a(I1972
g343
tp1247
a(I1968
g343
tp1248
a(I1967
g343
tp1249
a(I1966
g343
tp1250
a(I1970
g526
tp1251
a(I1974
g343
tp1252
a(I1961
g526
tp1253
a(I1964
g343
tp1254
a(I1975
g526
tp1255
assI38
(dp1256
S'H'
(lp1257
g109
ag113
ag321
ag246
ag118
ag564
aS'Afton'
p1258
ag14
ag19
aS'Fern'
p1259
ag245
ag323
ag562
aS'Vera'
p1260
aS'Beth'
p1261
ag318
aS'Erma'
p1262
ag122
aS'Melba'
p1263
aS'Larue'
p1264
asS'W'
(lp1265
(I1919
g31
tp1266
a(I1917
g31
tp1267
a(I1920
g31
tp1268
a(I1921
g31
tp1269
a(I1922
g31
tp1270
a(I1916
g31
tp1271
a(I1923
g31
tp1272
a(I1915
g31
tp1273
a(I1924
g31
tp1274
a(I1918
g31
tp1275
a(I1914
g31
tp1276
a(I1925
g31
tp1277
a(I1926
g31
tp1278
a(I1927
g31
tp1279
a(I1913
g31
tp1280
a(I1928
g31
tp1281
a(I1921
g54
tp1282
a(I1919
g54
tp1283
a(I1912
g31
tp1284
a(I1929
g31
tp1285
assI39
(dp1286
S'H'
(lp1287
g149
ag151
aS'Destiny'
p1288
ag158
ag163
aS'Savannah'
p1289
ag164
ag589
ag598
ag749
ag154
ag596
ag150
ag597
ag159
ag162
aS'Jada'
p1290
ag156
aS'Katelyn'
p1291
aS'Breanna'
p1292
asS'W'
(lp1293
(I2001
g295
tp1294
a(I2000
g295
tp1295
a(I1999
g295
tp1296
a(I2002
g295
tp1297
a(I2000
g293
tp1298
a(I2001
g293
tp1299
a(I1999
g293
tp1300
a(I2002
g293
tp1301
a(I2003
g295
tp1302
a(I1998
g295
tp1303
a(I2000
g544
tp1304
a(I1998
g293
tp1305
a(I2001
g333
tp1306
a(I2000
g755
tp1307
a(I2000
g326
tp1308
a(I2001
g755
tp1309
a(I2001
g544
tp1310
a(I1999
g544
tp1311
a(I2002
g326
tp1312
a(I2004
g295
tp1313
assI40
(dp1314
S'H'
(lp1315
g5
ag435
ag15
ag7
ag19
ag10
ag4
ag6
ag199
ag688
ag191
ag436
ag692
aS'Lynn'
p1316
ag8
ag434
ag432
ag13
ag405
ag402
asS'W'
(lp1317
(I1960
g97
tp1318
a(I1962
g97
tp1319
a(I1959
g97
tp1320
a(I1961
g97
tp1321
a(I1958
g97
tp1322
a(I1960
g185
tp1323
a(I1957
g97
tp1324
a(I1962
g185
tp1325
a(I1964
g97
tp1326
a(I1959
g185
tp1327
a(I1961
g185
tp1328
a(I1963
g97
tp1329
a(I1960
g213
tp1330
a(I1959
g213
tp1331
a(I1958
g213
tp1332
a(I1961
g213
tp1333
a(I1958
g185
tp1334
a(I1962
g213
tp1335
a(I1957
g213
tp1336
a(I1959
g249
tp1337
assI41
(dp1338
S'H'
(lp1339
g749
ag744
ag589
aS'Diamond'
p1340
ag1201
aS'Imani'
p1341
ag991
ag158
ag1288
ag1290
ag156
ag593
ag600
ag164
aS'Asia'
p1342
aS'Gabrielle'
p1343
aS'Caroline'
p1344
aS'Katherine'
p1345
aS'Nia'
p1346
ag506
asS'W'
(lp1347
(I1999
g126
tp1348
a(I2000
g126
tp1349
a(I1998
g126
tp1350
a(I1997
g126
tp1351
a(I2001
g126
tp1352
a(I1996
g126
tp1353
a(I2002
g126
tp1354
a(I1995
g126
tp1355
a(I2003
g126
tp1356
a(I1994
g126
tp1357
a(I2004
g126
tp1358
a(I2005
g126
tp1359
a(I1993
g126
tp1360
a(I2006
g126
tp1361
a(I2007
g126
tp1362
a(I1992
g126
tp1363
a(I2008
g126
tp1364
a(I1991
g126
tp1365
a(I2009
g126
tp1366
a(I2000
g820
tp1367
assI42
(dp1368
S'H'
(lp1369
g149
ag366
ag960
ag592
ag505
ag153
ag597
ag744
ag496
ag166
ag158
aS'Kylie'
p1370
ag150
ag595
ag1288
ag359
ag1289
ag1074
ag503
ag596
asS'W'
(lp1371
(I2005
g526
tp1372
a(I2003
g391
tp1373
a(I2004
g526
tp1374
a(I2005
g391
tp1375
a(I2004
g391
tp1376
a(I2006
g526
tp1377
a(I2003
g526
tp1378
ag1178
a(I2007
g391
tp1379
a(I2006
g391
tp1380
a(I2008
g391
tp1381
ag1180
a(I2002
g391
tp1382
a(I2007
g526
tp1383
a(I2004
g42
tp1384
a(I2002
g526
tp1385
a(I2009
g391
tp1386
a(I2003
g33
tp1387
a(I2005
g33
tp1388
a(I2004
g33
tp1389
assI43
(dp1390
S'H'
(lp1391
g8
ag108
ag109
ag124
ag68
ag469
ag320
ag113
aS'Agnes'
p1392
ag274
aS'Esther'
p1393
ag314
ag466
ag112
ag926
aS'Clara'
p1394
aS'Elsie'
p1395
ag114
ag636
ag14
asS'W'
(lp1396
(I1913
g391
tp1397
a(I1931
g391
tp1398
a(I1926
g391
tp1399
a(I1922
g391
tp1400
a(I1918
g391
tp1401
a(I1911
g391
tp1402
a(I1924
g391
tp1403
a(I1920
g391
tp1404
a(I1914
g391
tp1405
a(I1930
g391
tp1406
a(I1934
g391
tp1407
a(I1921
g391
tp1408
a(I1915
g391
tp1409
a(I1937
g391
tp1410
a(I1940
g391
tp1411
a(I1928
g391
tp1412
a(I1935
g391
tp1413
a(I1929
g391
tp1414
a(I1927
g391
tp1415
a(I1936
g391
tp1416
assI44
(dp1417
S'H'
(lp1418
g749
ag743
ag593
ag1045
ag58
ag160
ag161
ag750
ag59
ag748
ag73
ag746
ag872
ag62
aS'Chelsey'
p1419
ag747
ag76
ag77
aS'Cassandra'
p1420
ag597
asS'W'
(lp1421
(I1989
g91
tp1422
a(I1991
g381
tp1423
a(I1991
g91
tp1424
a(I1990
g91
tp1425
a(I1988
g91
tp1426
a(I1989
g381
tp1427
a(I1990
g381
tp1428
a(I1987
g91
tp1429
a(I1990
g33
tp1430
a(I1988
g381
tp1431
a(I1991
g33
tp1432
a(I1988
g33
tp1433
a(I1990
g54
tp1434
a(I1989
g33
tp1435
a(I1991
g54
tp1436
a(I1989
g39
tp1437
a(I1991
g94
tp1438
a(I1989
g42
tp1439
a(I1992
g91
tp1440
a(I1989
g54
tp1441
assI45
(dp1442
S'H'
(lp1443
g71
ag534
ag60
ag76
ag63
ag62
ag191
aS'Heidi'
p1444
ag204
ag74
ag161
ag61
ag66
aS'Jamie'
p1445
aS'Kari'
p1446
ag64
aS'Jodi'
p1447
aS'Carrie'
p1448
ag1018
aS'Jaime'
p1449
asS'W'
(lp1450
(I1977
g39
tp1451
a(I1977
g381
tp1452
a(I1976
g52
tp1453
a(I1975
g52
tp1454
a(I1978
g52
tp1455
a(I1976
g39
tp1456
a(I1976
g381
tp1457
a(I1977
g52
tp1458
a(I1976
g46
tp1459
a(I1978
g39
tp1460
a(I1976
g91
tp1461
a(I1977
g91
tp1462
a(I1975
g91
tp1463
a(I1977
g46
tp1464
a(I1975
g39
tp1465
a(I1979
g52
tp1466
a(I1978
g46
tp1467
a(I1978
g91
tp1468
a(I1977
g228
tp1469
a(I1976
g31
tp1470
assI46
(dp1471
S'H'
(lp1472
g76
ag60
ag162
ag872
ag58
ag745
ag61
ag193
ag64
ag1021
ag66
ag191
ag192
ag75
ag68
ag70
ag161
ag69
ag17
aS'Kristin'
p1473
asS'W'
(lp1474
(I1982
g126
tp1475
a(I1980
g126
tp1476
a(I1981
g126
tp1477
a(I1983
g126
tp1478
a(I1978
g126
tp1479
a(I1982
g249
tp1480
a(I1979
g126
tp1481
a(I1984
g126
tp1482
a(I1981
g249
tp1483
a(I1983
g249
tp1484
a(I1982
g255
tp1485
a(I1980
g249
tp1486
a(I1984
g249
tp1487
a(I1976
g126
tp1488
a(I1981
g255
tp1489
a(I1980
g255
tp1490
a(I1979
g249
tp1491
a(I1977
g126
tp1492
a(I1983
g255
tp1493
a(I1984
g255
tp1494
assI47
(dp1495
S'H'
(lp1496
g360
ag153
aS'Ellie'
p1497
ag355
ag370
ag166
aS'Gracie'
p1498
ag155
ag592
ag152
ag962
ag162
aS'Rylee'
p1499
ag150
aS'Ashlyn'
p1500
ag1291
ag156
aS'Macy'
p1501
ag159
ag1072
asS'W'
(lp1502
(I2005
g31
tp1503
a(I2006
g31
tp1504
a(I2004
g31
tp1505
a(I2007
g31
tp1506
a(I2003
g31
tp1507
a(I2009
g31
tp1508
a(I2008
g31
tp1509
a(I2010
g31
tp1510
a(I2005
g54
tp1511
a(I2006
g54
tp1512
a(I2002
g31
tp1513
a(I2007
g54
tp1514
a(I2011
g31
tp1515
a(I2004
g54
tp1516
a(I2009
g54
tp1517
a(I2008
g54
tp1518
a(I2006
g39
tp1519
a(I2005
g39
tp1520
ag1082
a(I2010
g54
tp1521
assI48
(dp1522
S'H'
(lp1523
g593
ag160
ag76
ag59
ag743
ag162
ag872
ag597
ag75
ag1201
ag154
aS'Caitlin'
p1524
ag58
ag62
ag750
aS'Meghan'
p1525
ag875
ag161
ag598
ag66
asS'W'
(lp1526
(I1989
g185
tp1527
a(I1990
g185
tp1528
a(I1992
g249
tp1529
a(I1993
g185
tp1530
a(I1991
g185
tp1531
a(I1993
g213
tp1532
a(I1992
g213
tp1533
a(I1992
g185
tp1534
a(I1993
g249
tp1535
a(I1991
g213
tp1536
a(I1990
g249
tp1537
a(I1994
g97
tp1538
a(I1988
g185
tp1539
a(I1990
g213
tp1540
a(I1989
g97
tp1541
a(I1990
g87
tp1542
a(I1994
g213
tp1543
a(I1992
g97
tp1544
a(I1991
g249
tp1545
a(I1989
g213
tp1546
assI49
(dp1547
S'H'
(lp1548
g109
ag122
ag286
ag926
ag107
ag113
ag1393
ag110
ag1392
ag117
ag930
ag124
aS'Bernice'
p1549
ag108
aS'Viola'
p1550
ag470
ag1099
ag123
ag121
aS'Mabel'
p1551
asS'W'
(lp1552
(I1918
g91
tp1553
a(I1915
g91
tp1554
a(I1920
g91
tp1555
a(I1919
g91
tp1556
a(I1912
g91
tp1557
a(I1915
g381
tp1558
a(I1916
g91
tp1559
a(I1917
g91
tp1560
a(I1910
g381
tp1561
a(I1913
g381
tp1562
a(I1914
g91
tp1563
a(I1914
g381
tp1564
a(I1910
g52
tp1565
a(I1912
g381
tp1566
a(I1913
g91
tp1567
a(I1911
g381
tp1568
a(I1911
g91
tp1569
a(I1910
g228
tp1570
a(I1911
g52
tp1571
a(I1918
g381
tp1572
assI50
(dp1573
S'H'
(lp1574
g60
ag73
ag1127
ag59
ag745
ag193
ag1125
ag67
ag1445
ag75
ag1129
ag1021
ag534
ag191
ag1124
ag63
ag192
aS'Andrea'
p1575
ag537
ag61
asS'W'
(lp1576
(I1979
g328
tp1577
a(I1980
g328
tp1578
a(I1979
g42
tp1579
a(I1981
g328
tp1580
a(I1979
g54
tp1581
a(I1979
g31
tp1582
a(I1978
g42
tp1583
a(I1980
g31
tp1584
a(I1980
g54
tp1585
a(I1982
g328
tp1586
a(I1981
g54
tp1587
a(I1978
g328
tp1588
a(I1979
g27
tp1589
a(I1981
g42
tp1590
a(I1980
g42
tp1591
a(I1981
g31
tp1592
a(I1978
g31
tp1593
a(I1980
g27
tp1594
a(I1977
g328
tp1595
a(I1977
g31
tp1596
ass.