(dp1
I1
(dp2
S'H'
(lp3
S'Robert'
p4
aS'John'
p5
aS'William'
p6
aS'James'
p7
aS'Richard'
p8
aS'Edward'
p9
aS'Thomas'
p10
aS'Charles'
p11
aS'George'
p12
aS'Paul'
p13
aS'Raymond'
p14
aS'Donald'
p15
aS'Kenneth'
p16
aS'Eugene'
p17
aS'Russell'
p18
aS'Warren'
p19
aS'Leonard'
p20
aS'Frank'
p21
aS'Earl'
p22
aS'Roy'
p23
asS'W'
(lp24
(I1938
S'RI'
p25
tp26
a(I1937
g25
tp27
a(I1923
S'NV'
p28
tp29
a(I1924
g28
tp30
a(I1936
g25
tp31
a(I1934
g25
tp32
a(I1926
S'AK'
p33
tp34
a(I1951
g25
tp35
a(I1951
S'NJ'
p36
tp37
a(I1948
g36
tp38
a(I1926
g28
tp39
a(I1939
g25
tp40
a(I1949
g36
tp41
a(I1947
g36
tp42
a(I1923
S'WI'
p43
tp44
a(I1924
g43
tp45
a(I1933
g25
tp46
a(I1950
g36
tp47
a(I1921
g43
tp48
a(I1937
S'MA'
p49
tp50
assI2
(dp51
S'H'
(lp52
S'Matthew'
p53
aS'Ryan'
p54
aS'Christopher'
p55
aS'Michael'
p56
aS'Joshua'
p57
aS'Nicholas'
p58
aS'Andrew'
p59
aS'Kyle'
p60
aS'Daniel'
p61
aS'Justin'
p62
aS'Adam'
p63
aS'Jonathan'
p64
aS'Kevin'
p65
aS'Brandon'
p66
aS'Joseph'
p67
aS'Brian'
p68
aS'Timothy'
p69
aS'Zachary'
p70
aS'Sean'
p71
aS'Anthony'
p72
asS'W'
(lp73
(I1989
g25
tp74
a(I1987
g25
tp75
a(I1986
g25
tp76
a(I1985
g25
tp77
a(I1985
g49
tp78
a(I1987
S'CT'
p79
tp80
a(I1988
g49
tp81
a(I1984
g25
tp82
a(I1989
g49
tp83
a(I1987
g49
tp84
a(I1990
g25
tp85
a(I1986
g49
tp86
a(I1988
S'NH'
p87
tp88
a(I1988
g25
tp89
a(I1990
g49
tp90
a(I1988
g79
tp91
a(I1990
g79
tp92
a(I1989
g79
tp93
a(I1986
g87
tp94
a(I1991
g25
tp95
assI3
(dp96
S'H'
(lp97
S'Aiden'
p98
aS'Brayden'
p99
aS'Jayden'
p100
aS'Landon'
p101
aS'Gavin'
p102
aS'Logan'
p103
aS'Kaden'
p104
aS'Aidan'
p105
aS'Hayden'
p106
aS'Caden'
p107
aS'Ayden'
p108
aS'Brody'
p109
aS'Wyatt'
p110
aS'Ethan'
p111
aS'Cooper'
p112
aS'Carter'
p113
aS'Connor'
p114
aS'Mason'
p115
aS'Elijah'
p116
aS'Evan'
p117
asS'W'
(lp118
(I2008
S'ND'
p119
tp120
a(I2008
S'WV'
p121
tp122
a(I2009
g121
tp123
a(I2007
S'WY'
p124
tp125
a(I2008
S'KY'
p126
tp127
a(I2008
S'MO'
p128
tp129
a(I2007
g121
tp130
a(I2008
S'AR'
p131
tp132
a(I2007
S'IA'
p133
tp134
a(I2009
g126
tp135
a(I2008
S'IN'
p136
tp137
a(I2007
g119
tp138
a(I2008
S'KS'
p139
tp140
a(I2007
g136
tp141
a(I2009
g131
tp142
a(I2008
g133
tp143
a(I2008
S'LA'
p144
tp145
a(I2006
g121
tp146
a(I2008
S'OH'
p147
tp148
a(I2008
S'SD'
p149
tp150
assI4
(dp151
S'H'
(lp152
g56
aS'Steven'
p153
aS'David'
p154
aS'Gary'
p155
ag10
ag7
aS'Mark'
p156
ag61
aS'Dennis'
p157
aS'Stephen'
p158
aS'Gregory'
p159
ag8
ag5
aS'Bruce'
p160
ag69
aS'Douglas'
p161
aS'Jeffrey'
p162
aS'Ronald'
p163
aS'Terry'
p164
ag16
asS'W'
(lp165
(I1952
S'MN'
p166
tp167
a(I1950
g166
tp168
a(I1952
g43
tp169
a(I1951
g166
tp170
a(I1953
g43
tp171
a(I1953
g166
tp172
a(I1951
g133
tp173
a(I1952
g133
tp174
a(I1951
g43
tp175
a(I1954
g43
tp176
a(I1954
g166
tp177
a(I1949
g166
tp178
a(I1953
g133
tp179
a(I1951
S'OR'
p180
tp181
a(I1952
g180
tp182
a(I1952
g28
tp183
a(I1952
S'NE'
p184
tp185
a(I1954
g184
tp186
a(I1950
g43
tp187
a(I1951
g136
tp188
assI5
(dp189
S'H'
(lp190
S'Willie'
p191
ag7
ag4
ag5
ag6
aS'Charlie'
p192
aS'Henry'
p193
aS'Joe'
p194
aS'Johnnie'
p195
ag12
aS'Eddie'
p196
ag10
ag11
aS'Walter'
p197
aS'Jessie'
p198
aS'Roosevelt'
p199
aS'Leroy'
p200
ag21
aS'Fred'
p201
aS'Albert'
p202
asS'W'
(lp203
(I1910
S'GA'
p204
tp205
a(I1910
S'MS'
p206
tp207
a(I1911
g206
tp208
a(I1911
g204
tp209
a(I1910
S'AL'
p210
tp211
a(I1910
S'FL'
p212
tp213
a(I1913
g206
tp214
a(I1919
g206
tp215
a(I1912
g206
tp216
a(I1911
g210
tp217
a(I1922
g206
tp218
a(I1925
g206
tp219
a(I1930
g206
tp220
a(I1914
g206
tp221
a(I1920
g206
tp222
a(I1923
g206
tp223
a(I1929
g206
tp224
a(I1917
g206
tp225
a(I1928
g206
tp226
a(I1910
S'SC'
p227
tp228
assI6
(dp229
S'H'
(lp230
S'Tyler'
p231
aS'Cody'
p232
ag70
aS'Jordan'
p233
ag60
aS'Jacob'
p234
ag66
aS'Taylor'
p235
ag59
aS'Dylan'
p236
ag57
ag55
aS'Austin'
p237
aS'Alexander'
p238
ag56
aS'Dustin'
p239
ag58
aS'Trevor'
p240
aS'Aaron'
p241
ag54
asS'W'
(lp242
(I1991
g149
tp243
a(I1992
g149
tp244
a(I1991
S'MT'
p245
tp246
a(I1991
g119
tp247
a(I1990
g149
tp248
a(I1990
g119
tp249
a(I1991
S'ID'
p250
tp251
a(I1992
g119
tp252
a(I1992
g250
tp253
a(I1991
g124
tp254
a(I1991
g133
tp255
a(I1990
g184
tp256
a(I1990
g133
tp257
a(I1991
g184
tp258
a(I1993
g245
tp259
a(I1990
g250
tp260
a(I1992
g133
tp261
a(I1993
g121
tp262
a(I1990
g124
tp263
a(I1992
g121
tp264
assI7
(dp265
S'H'
(lp266
g8
ag163
ag5
ag7
ag15
ag4
ag154
ag10
aS'Gerald'
p267
ag16
ag11
aS'Lawrence'
p268
aS'Roger'
p269
ag13
ag61
ag6
aS'Norman'
p270
ag12
ag160
aS'Carl'
p271
asS'W'
(lp272
(I1933
g43
tp273
a(I1934
g43
tp274
a(I1935
g43
tp275
a(I1937
g43
tp276
a(I1936
g43
tp277
a(I1944
g87
tp278
a(I1935
g87
tp279
a(I1938
g87
tp280
a(I1940
g87
tp281
a(I1935
S'VT'
p282
tp283
a(I1933
g166
tp284
a(I1940
g282
tp285
a(I1938
g43
tp286
a(I1934
S'MI'
p287
tp288
a(I1935
S'IL'
p289
tp290
a(I1935
g147
tp291
a(I1934
g289
tp292
a(I1932
g43
tp293
a(I1941
g87
tp294
a(I1934
g282
tp295
assI8
(dp296
S'H'
(lp297
S'Jose'
p298
ag194
aS'Juan'
p299
aS'Manuel'
p300
aS'Antonio'
p301
aS'Ramon'
p302
aS'Eloy'
p303
aS'Pedro'
p304
ag21
aS'Jesus'
p305
aS'Alfredo'
p306
aS'Francisco'
p307
aS'Pete'
p308
aS'Luis'
p309
aS'Alfonso'
p310
ag4
aS'Guadalupe'
p311
aS'Felipe'
p312
aS'Ernesto'
p313
aS'Louis'
p314
asS'W'
(lp315
(I1912
S'NM'
p316
tp317
a(I1910
g316
tp318
a(I1914
g316
tp319
a(I1911
g316
tp320
a(I1921
g316
tp321
a(I1924
g316
tp322
a(I1920
g316
tp323
a(I1919
g316
tp324
a(I1915
g316
tp325
a(I1922
g316
tp326
a(I1913
g316
tp327
a(I1918
g316
tp328
a(I1923
g316
tp329
a(I1928
g316
tp330
a(I1927
g316
tp331
a(I1917
g316
tp332
a(I1916
g316
tp333
a(I1926
g316
tp334
a(I1925
g316
tp335
a(I1929
g316
tp336
assI9
(dp337
S'H'
(lp338
g162
ag156
ag65
aS'Scott'
p339
ag69
ag68
aS'Todd'
p340
ag5
ag7
ag154
ag10
ag61
ag56
aS'Keith'
p341
ag4
ag159
ag161
ag13
ag67
ag6
asS'W'
(lp342
(I1962
g119
tp343
a(I1963
g119
tp344
a(I1961
g149
tp345
a(I1962
g166
tp346
a(I1963
g43
tp347
a(I1961
g119
tp348
a(I1963
g133
tp349
a(I1962
g149
tp350
a(I1963
g149
tp351
a(I1962
g43
tp352
a(I1961
g166
tp353
a(I1960
g119
tp354
a(I1963
g166
tp355
a(I1964
g43
tp356
a(I1960
g166
tp357
a(I1959
g119
tp358
a(I1965
g43
tp359
a(I1962
g133
tp360
a(I1961
g43
tp361
a(I1966
g43
tp362
assI10
(dp363
S'H'
(lp364
g5
ag11
ag4
aS'Harold'
p365
ag13
aS'Ralph'
p366
ag271
aS'Elmer'
p367
ag22
ag6
ag16
aS'Virgil'
p368
aS'Howard'
p369
ag21
aS'Cecil'
p370
aS'Floyd'
p371
ag12
aS'Clarence'
p372
aS'Harry'
p373
aS'Chester'
p374
asS'W'
(lp375
(I1913
g139
tp376
a(I1912
g139
tp377
a(I1915
g139
tp378
a(I1911
g139
tp379
a(I1910
g139
tp380
a(I1916
g139
tp381
a(I1914
g139
tp382
a(I1917
g139
tp383
a(I1915
S'OK'
p384
tp385
a(I1919
g139
tp386
a(I1912
g136
tp387
a(I1918
g139
tp388
a(I1916
g384
tp389
a(I1912
g384
tp390
a(I1917
g384
tp391
a(I1918
g384
tp392
a(I1914
g384
tp393
a(I1913
g384
tp394
a(I1914
g136
tp395
a(I1915
g136
tp396
assI11
(dp397
S'H'
(lp398
S'Jason'
p399
aS'Jeremy'
p400
ag55
ag68
aS'Chad'
p401
ag53
ag54
ag56
aS'Shawn'
p402
ag65
ag61
aS'Eric'
p403
ag7
ag162
ag4
ag241
aS'Jamie'
p404
ag69
aS'Shane'
p405
aS'Travis'
p406
asS'W'
(lp407
(I1974
g139
tp408
a(I1973
g149
tp409
a(I1974
g133
tp410
a(I1973
g133
tp411
a(I1975
g139
tp412
a(I1974
g119
tp413
a(I1976
g149
tp414
a(I1974
g43
tp415
a(I1977
g121
tp416
a(I1974
g149
tp417
a(I1973
g166
tp418
a(I1974
g282
tp419
a(I1974
g245
tp420
a(I1974
g184
tp421
a(I1975
g43
tp422
a(I1975
g119
tp423
a(I1975
g136
tp424
a(I1976
g131
tp425
a(I1974
g180
tp426
a(I1977
g131
tp427
assI12
(dp428
S'H'
(lp429
S'Bentley'
p430
aS'Jaxon'
p431
aS'Easton'
p432
aS'Brantley'
p433
ag115
aS'Liam'
p434
ag98
ag99
ag100
ag108
ag116
aS'Colton'
p435
aS'Jase'
p436
aS'Bryson'
p437
aS'Jace'
p438
aS'Kayden'
p439
aS'Grayson'
p440
aS'Jaxson'
p441
aS'Braxton'
p442
aS'Hudson'
p443
asS'W'
(lp444
(I2013
g121
tp445
a(I2013
g126
tp446
a(I2014
g121
tp447
a(I2014
g206
tp448
a(I2013
g210
tp449
a(I2014
g126
tp450
a(I2013
g131
tp451
a(I2013
g206
tp452
a(I2014
g210
tp453
a(I2013
S'TN'
p454
tp455
a(I2012
g121
tp456
a(I2014
g131
tp457
a(I2012
g126
tp458
a(I2013
g144
tp459
a(I2014
g144
tp460
a(I2012
g131
tp461
a(I2012
g210
tp462
a(I2012
g206
tp463
a(I2014
g227
tp464
a(I2014
g454
tp465
assI13
(dp466
S'H'
(lp467
g155
aS'Larry'
p468
ag163
ag157
ag7
ag154
ag8
aS'Jerry'
p469
ag269
ag10
ag5
ag267
ag164
aS'Jim'
p470
ag16
ag161
ag11
aS'Tom'
p471
aS'Bill'
p472
ag56
asS'W'
(lp473
(I1942
g149
tp474
a(I1945
g119
tp475
a(I1942
g119
tp476
a(I1944
g119
tp477
a(I1944
g149
tp478
a(I1943
g149
tp479
a(I1940
g149
tp480
a(I1946
g119
tp481
a(I1947
g119
tp482
a(I1942
g184
tp483
a(I1942
g133
tp484
a(I1941
g149
tp485
a(I1945
g149
tp486
a(I1943
g184
tp487
a(I1946
g149
tp488
a(I1940
g184
tp489
a(I1943
g119
tp490
a(I1941
g184
tp491
a(I1941
g133
tp492
a(I1943
g133
tp493
assI14
(dp494
S'H'
(lp495
g67
ag72
ag10
ag56
ag9
ag5
aS'Francis'
p496
ag14
ag21
aS'Vincent'
p497
ag314
aS'Peter'
p498
ag202
aS'Salvatore'
p499
aS'Arthur'
p500
ag58
aS'Alfred'
p501
ag13
ag197
aS'Angelo'
p502
asS'W'
(lp503
(I1914
g79
tp504
a(I1916
g25
tp505
a(I1916
g79
tp506
a(I1914
g25
tp507
a(I1915
g25
tp508
a(I1913
g79
tp509
a(I1910
g79
tp510
a(I1915
g79
tp511
a(I1918
g79
tp512
a(I1919
g25
tp513
a(I1917
g25
tp514
a(I1917
g79
tp515
a(I1912
g79
tp516
a(I1911
g25
tp517
a(I1921
g25
tp518
a(I1913
g25
tp519
a(I1918
g25
tp520
a(I1921
g79
tp521
a(I1919
g79
tp522
a(I1920
g79
tp523
assI15
(dp524
S'H'
(lp525
g365
ag372
ag12
ag197
ag500
ag14
ag367
ag9
ag16
ag15
ag67
ag193
aS'Lloyd'
p526
ag496
ag268
ag369
ag202
aS'Herbert'
p527
ag23
aS'Arnold'
p528
asS'W'
(lp529
(I1913
g119
tp530
a(I1915
g119
tp531
a(I1917
g119
tp532
a(I1912
g119
tp533
a(I1914
g119
tp534
a(I1916
g119
tp535
a(I1918
g119
tp536
a(I1911
g119
tp537
a(I1912
g166
tp538
a(I1919
g119
tp539
a(I1912
g43
tp540
a(I1920
g119
tp541
a(I1910
g166
tp542
a(I1914
g166
tp543
a(I1922
g119
tp544
a(I1911
g166
tp545
a(I1916
g166
tp546
a(I1913
g43
tp547
a(I1911
g43
tp548
a(I1913
g166
tp549
assI16
(dp550
S'H'
(lp551
g57
ag54
ag62
ag400
ag239
ag53
ag63
aS'Nathan'
p552
ag406
aS'Jared'
p553
ag241
ag66
ag56
aS'Benjamin'
p554
ag234
ag58
ag55
ag403
ag154
aS'Jesse'
p555
asS'W'
(lp556
(I1980
g119
tp557
a(I1981
g149
tp558
a(I1980
g149
tp559
a(I1981
g119
tp560
a(I1981
g250
tp561
a(I1980
g133
tp562
a(I1979
g250
tp563
a(I1980
g250
tp564
a(I1981
g245
tp565
a(I1982
g119
tp566
a(I1980
g245
tp567
a(I1977
g250
tp568
a(I1978
g119
tp569
a(I1981
g133
tp570
a(I1978
g149
tp571
a(I1979
g124
tp572
a(I1982
g149
tp573
a(I1980
S'UT'
p574
tp575
a(I1977
g574
tp576
a(I1979
g180
tp577
assI17
(dp578
S'H'
(lp579
g298
ag299
ag305
ag309
aS'Jorge'
p580
aS'Miguel'
p581
ag61
aS'Carlos'
p582
ag307
ag154
aS'Alejandro'
p583
ag56
aS'Ricardo'
p584
aS'Roberto'
p585
aS'Eduardo'
p586
aS'Javier'
p587
aS'Hector'
p588
aS'Raul'
p589
aS'Sergio'
p590
aS'Gabriel'
p591
asS'W'
(lp592
(I1993
S'CA'
p593
tp594
a(I1992
g593
tp595
a(I1994
g593
tp596
a(I1991
g593
tp597
a(I1995
g593
tp598
a(I1996
g593
tp599
a(I1994
S'TX'
p600
tp601
a(I1993
g600
tp602
a(I1990
g593
tp603
a(I1995
g600
tp604
a(I1996
g600
tp605
a(I1997
g593
tp606
a(I1992
g600
tp607
a(I1997
g600
tp608
a(I1998
g600
tp609
a(I1998
g593
tp610
a(I1999
g600
tp611
a(I1991
g600
tp612
a(I2000
g600
tp613
a(I1989
g593
tp614
assI18
(dp615
S'H'
(lp616
g5
ag6
ag12
ag7
ag21
ag9
ag193
ag373
ag201
ag202
ag11
ag67
ag197
ag500
ag501
ag271
aS'Nick'
p617
ag59
aS'Ernest'
p618
ag13
asS'W'
(lp619
(I1913
g33
tp620
a(I1911
g33
tp621
a(I1911
g28
tp622
a(I1912
g33
tp623
a(I1912
g28
tp624
a(I1914
g28
tp625
a(I1916
g33
tp626
a(I1918
g28
tp627
a(I1921
g33
tp628
a(I1910
g245
tp629
a(I1925
g33
tp630
a(I1935
g33
tp631
a(I1910
g49
tp632
a(I1924
g33
tp633
a(I1931
g33
tp634
a(I1910
g28
tp635
a(I1912
S'DE'
p636
tp637
a(I1915
g28
tp638
a(I1919
g33
tp639
a(I1914
g33
tp640
assI19
(dp641
S'H'
(lp642
S'Masao'
p643
aS'Yoshio'
p644
aS'Hiroshi'
p645
aS'Kiyoshi'
p646
aS'Hideo'
p647
aS'Mitsuo'
p648
ag12
aS'Takeo'
p649
aS'Toshio'
p650
aS'Kazuo'
p651
aS'Shigeru'
p652
aS'Minoru'
p653
aS'Tadashi'
p654
aS'Noboru'
p655
aS'Haruo'
p656
aS'Isamu'
p657
aS'Shigeo'
p658
aS'Masaru'
p659
aS'Takeshi'
p660
aS'Masato'
p661
asS'W'
(lp662
(I1921
S'HI'
p663
tp664
a(I1923
g663
tp665
a(I1924
g663
tp666
a(I1922
g663
tp667
a(I1920
g663
tp668
a(I1925
g663
tp669
a(I1919
g663
tp670
a(I1917
g663
tp671
a(I1918
g663
tp672
a(I1926
g663
tp673
a(I1915
g663
tp674
a(I1916
g663
tp675
a(I1927
g663
tp676
a(I1929
g663
tp677
a(I1912
g663
tp678
a(I1928
g663
tp679
a(I1914
g663
tp680
a(I1930
g663
tp681
a(I1913
g663
tp682
a(I1931
g663
tp683
assI20
(dp684
S'H'
(lp685
g56
ag55
ag154
ag68
ag53
ag403
ag339
ag71
ag153
ag402
ag399
ag162
ag158
ag61
ag7
ag65
ag159
ag72
ag5
ag67
asS'W'
(lp686
(I1972
g49
tp687
a(I1971
g49
tp688
a(I1972
g79
tp689
a(I1972
g636
tp690
a(I1970
g49
tp691
a(I1973
g636
tp692
a(I1972
g25
tp693
a(I1970
g87
tp694
a(I1971
g25
tp695
a(I1973
g49
tp696
a(I1969
g49
tp697
a(I1971
g636
tp698
a(I1971
g79
tp699
a(I1971
g87
tp700
a(I1972
g36
tp701
a(I1969
g282
tp702
a(I1973
g79
tp703
a(I1974
g636
tp704
a(I1972
S'NY'
p705
tp706
a(I1974
g49
tp707
assI21
(dp708
S'H'
(lp709
g4
ag8
ag14
ag12
ag15
aS'Roland'
p710
ag500
ag496
aS'Normand'
p711
ag269
ag67
ag365
ag202
ag270
ag11
ag9
aS'Armand'
p712
aS'Maurice'
p713
aS'Leo'
p714
ag618
asS'W'
(lp715
(I1923
g87
tp716
a(I1927
g87
tp717
a(I1922
g87
tp718
a(I1925
g87
tp719
a(I1929
g87
tp720
a(I1924
g87
tp721
a(I1920
g87
tp722
a(I1924
S'ME'
p723
tp724
a(I1926
g87
tp725
a(I1921
g87
tp726
a(I1928
g87
tp727
a(I1926
g723
tp728
a(I1917
g87
tp729
a(I1928
g723
tp730
a(I1923
g723
tp731
a(I1925
g723
tp732
a(I1922
g723
tp733
a(I1930
g723
tp734
a(I1929
g723
tp735
a(I1919
g87
tp736
assI22
(dp737
S'H'
(lp738
g100
ag98
ag111
ag434
ag103
ag236
ag115
aS'Lucas'
p739
aS'Noah'
p740
aS'Sebastian'
p741
ag54
ag238
aS'Jaden'
p742
ag234
ag105
ag116
aS'Christian'
p743
aS'Luke'
p744
ag108
aS'Jeremiah'
p745
asS'W'
(lp746
(I2012
g36
tp747
a(I2011
g36
tp748
a(I2010
g36
tp749
a(I2011
g705
tp750
a(I2012
g705
tp751
a(I2010
g705
tp752
a(I2009
g36
tp753
a(I2009
g705
tp754
a(I2013
g36
tp755
a(I2013
g705
tp756
a(I2014
g36
tp757
a(I2014
g705
tp758
a(I2008
g705
tp759
a(I2008
g36
tp760
a(I2011
S'DC'
p761
tp762
a(I2007
g705
tp763
a(I2013
g761
tp764
a(I2007
g36
tp765
a(I2010
g79
tp766
a(I2009
g79
tp767
assI23
(dp768
S'H'
(lp769
S'Don'
p770
ag4
aS'Lynn'
p771
ag8
ag341
aS'Glen'
p772
aS'Jack'
p773
aS'Boyd'
p774
aS'Max'
p775
aS'Ray'
p776
aS'Dee'
p777
aS'Kay'
p778
ag366
aS'Rulon'
p779
aS'Jay'
p780
aS'Dean'
p781
aS'Wayne'
p782
aS'Grant'
p783
aS'Reed'
p784
ag16
asS'W'
(lp785
(I1927
g574
tp786
a(I1928
g574
tp787
a(I1926
g574
tp788
a(I1929
g574
tp789
a(I1922
g574
tp790
a(I1934
g574
tp791
a(I1930
g574
tp792
a(I1932
g574
tp793
a(I1925
g574
tp794
a(I1931
g574
tp795
a(I1920
g574
tp796
a(I1924
g574
tp797
a(I1923
g574
tp798
a(I1919
g574
tp799
a(I1933
g574
tp800
a(I1921
g574
tp801
a(I1918
g574
tp802
a(I1915
g574
tp803
a(I1917
g574
tp804
a(I1916
g574
tp805
assI24
(dp806
S'H'
(lp807
g237
ag234
ag231
aS'Hunter'
p808
aS'Dakota'
p809
ag236
ag70
ag66
ag103
ag58
aS'Dalton'
p810
aS'Caleb'
p811
ag54
ag743
ag53
ag232
ag114
aS'Tanner'
p812
ag233
ag435
asS'W'
(lp813
(I1999
g121
tp814
a(I1998
g121
tp815
a(I1998
g126
tp816
a(I1997
g126
tp817
a(I1997
g121
tp818
a(I1999
g126
tp819
a(I2000
g121
tp820
a(I1996
g126
tp821
a(I1996
g133
tp822
a(I1998
g454
tp823
a(I1997
g454
tp824
a(I1996
g454
tp825
a(I2001
g121
tp826
a(I1997
g131
tp827
a(I1998
g210
tp828
a(I1995
g126
tp829
a(I1996
g131
tp830
a(I1997
g133
tp831
a(I1996
g136
tp832
a(I1997
g384
tp833
assI25
(dp834
S'H'
(lp835
g57
ag66
ag55
ag62
ag64
ag400
ag53
ag239
ag7
ag6
ag56
ag67
ag70
ag154
ag406
ag5
ag61
aS'Corey'
p836
aS'Marcus'
p837
ag63
asS'W'
(lp838
(I1985
g210
tp839
a(I1988
g210
tp840
a(I1985
g454
tp841
a(I1986
g210
tp842
a(I1987
g210
tp843
a(I1985
g206
tp844
a(I1989
g210
tp845
a(I1988
g206
tp846
a(I1986
g206
tp847
a(I1987
g206
tp848
a(I1986
g454
tp849
a(I1984
g210
tp850
a(I1989
g206
tp851
a(I1985
g227
tp852
a(I1985
S'NC'
p853
tp854
a(I1984
g454
tp855
a(I1987
g454
tp856
a(I1988
g454
tp857
a(I1985
g204
tp858
a(I1986
g853
tp859
assI26
(dp860
S'H'
(lp861
S'Kainoa'
p862
aS'Kekoa'
p863
aS'Micah'
p864
aS'Kainalu'
p865
aS'Keoni'
p866
aS'Kaimana'
p867
aS'Kawika'
p868
aS'Nainoa'
p869
aS'Keanu'
p870
aS'Isaiah'
p871
ag740
aS'Ikaika'
p872
ag57
aS'Kai'
p873
ag233
ag743
aS'Jonah'
p874
aS'Makana'
p875
ag437
ag116
asS'W'
(lp876
(I2000
g663
tp877
a(I2001
g663
tp878
a(I2003
g663
tp879
a(I2002
g663
tp880
a(I2005
g663
tp881
a(I2007
g663
tp882
a(I2006
g663
tp883
a(I2004
g663
tp884
a(I1999
g663
tp885
a(I2008
g663
tp886
a(I1998
g663
tp887
a(I2009
g663
tp888
a(I2010
g663
tp889
a(I1997
g663
tp890
a(I1995
g663
tp891
a(I1996
g663
tp892
a(I2011
g663
tp893
a(I2012
g663
tp894
a(I1994
g663
tp895
a(I1992
g663
tp896
assI27
(dp897
S'H'
(lp898
g15
ag4
ag7
aS'Duane'
p899
aS'Dale'
p900
ag8
aS'Marvin'
p901
ag5
ag17
ag267
aS'Lyle'
p902
ag782
ag16
ag200
ag6
ag365
ag269
aS'Vernon'
p903
ag781
aS'Merle'
p904
asS'W'
(lp905
(I1931
g149
tp906
a(I1934
g119
tp907
a(I1935
g119
tp908
a(I1932
g149
tp909
a(I1933
g149
tp910
a(I1930
g149
tp911
a(I1928
g149
tp912
a(I1935
g149
tp913
a(I1933
g119
tp914
a(I1931
g119
tp915
a(I1934
g149
tp916
a(I1927
g149
tp917
a(I1936
g149
tp918
a(I1932
g119
tp919
a(I1926
g149
tp920
a(I1930
g119
tp921
a(I1937
g119
tp922
a(I1929
g149
tp923
a(I1939
g119
tp924
a(I1936
g119
tp925
assI28
(dp926
S'H'
(lp927
g67
ag5
ag11
ag314
ag4
ag193
ag202
aS'Huey'
p928
ag9
ag12
ag191
ag372
ag22
aS'Emile'
p929
aS'Percy'
p930
ag268
aS'Wilbert'
p931
ag21
aS'Alvin'
p932
ag200
asS'W'
(lp933
(I1928
g144
tp934
a(I1929
g144
tp935
a(I1930
g144
tp936
a(I1931
g144
tp937
a(I1919
g144
tp938
a(I1917
g144
tp939
a(I1921
g144
tp940
a(I1927
g144
tp941
a(I1923
g144
tp942
a(I1922
g144
tp943
a(I1925
g144
tp944
a(I1924
g144
tp945
a(I1914
g144
tp946
a(I1934
g144
tp947
a(I1916
g144
tp948
a(I1932
g144
tp949
a(I1936
g144
tp950
a(I1918
g144
tp951
a(I1926
g144
tp952
a(I1920
g144
tp953
assI29
(dp954
S'H'
(lp955
g468
ag469
ag7
ag154
aS'Jimmy'
p956
aS'Johnny'
p957
ag56
ag155
ag11
aS'Ronnie'
p958
aS'Danny'
p959
ag163
ag15
ag5
ag4
aS'Tommy'
p960
ag6
aS'Bobby'
p961
ag164
ag16
asS'W'
(lp962
(I1948
g131
tp963
a(I1949
g131
tp964
a(I1947
g131
tp965
a(I1950
g131
tp966
a(I1951
g131
tp967
a(I1946
g131
tp968
a(I1947
g384
tp969
a(I1948
g454
tp970
a(I1948
g384
tp971
a(I1946
g384
tp972
a(I1949
g384
tp973
a(I1949
g126
tp974
a(I1949
g454
tp975
a(I1950
g454
tp976
a(I1951
g454
tp977
a(I1949
g210
tp978
a(I1950
g204
tp979
a(I1951
g210
tp980
a(I1950
g210
tp981
a(I1952
g131
tp982
assI30
(dp983
S'H'
(lp984
g340
ag401
ag339
aS'Troy'
p985
ag56
ag402
ag405
ag68
aS'Darin'
p986
ag153
ag154
aS'Brent'
p987
ag403
ag406
ag54
aS'Darren'
p988
ag162
aS'Bradley'
p989
aS'Kelly'
p990
ag4
asS'W'
(lp991
(I1971
g149
tp992
a(I1970
g119
tp993
a(I1970
g149
tp994
a(I1969
g149
tp995
a(I1971
g119
tp996
a(I1972
g149
tp997
a(I1972
g119
tp998
a(I1969
g119
tp999
a(I1967
g574
tp1000
a(I1968
g119
tp1001
a(I1973
g119
tp1002
a(I1968
g149
tp1003
a(I1967
g149
tp1004
a(I1968
g574
tp1005
a(I1967
g119
tp1006
ag409
a(I1966
g574
tp1007
a(I1969
g574
tp1008
a(I1972
g133
tp1009
a(I1966
g149
tp1010
assI31
(dp1011
S'H'
(lp1012
S'Ryker'
p1013
ag432
ag431
ag443
ag112
aS'Lincoln'
p1014
aS'Asher'
p1015
aS'Ryder'
p1016
ag442
ag438
aS'Bridger'
p1017
ag434
ag111
aS'Porter'
p1018
aS'Boston'
p1019
ag113
aS'Carson'
p1020
ag110
aS'Daxton'
p1021
aS'Cash'
p1022
asS'W'
(lp1023
(I2013
g574
tp1024
a(I2014
g574
tp1025
a(I2012
g574
tp1026
a(I2011
g574
tp1027
a(I2010
g574
tp1028
a(I2009
g574
tp1029
a(I2008
g574
tp1030
a(I2013
g250
tp1031
a(I2014
g250
tp1032
a(I2007
g574
tp1033
a(I2014
g149
tp1034
a(I2012
g250
tp1035
a(I2011
g250
tp1036
a(I2010
g250
tp1037
a(I2014
g119
tp1038
a(I2014
g184
tp1039
a(I2006
g574
tp1040
a(I2009
g250
tp1041
a(I2014
g124
tp1042
a(I2013
g119
tp1043
assI32
(dp1044
S'H'
(lp1045
S'Billy'
p1046
ag7
ag961
ag11
ag5
ag956
ag194
ag469
aS'Jimmie'
p1047
ag6
ag16
ag15
aS'Billie'
p1048
ag960
ag365
aS'Jackie'
p1049
ag472
ag957
aS'Gene'
p1050
ag23
asS'W'
(lp1051
(I1931
g384
tp1052
a(I1932
g384
tp1053
a(I1934
g131
tp1054
a(I1936
g131
tp1055
a(I1933
g384
tp1056
a(I1935
g131
tp1057
a(I1934
g384
tp1058
a(I1930
g384
tp1059
a(I1933
g131
tp1060
a(I1937
g131
tp1061
a(I1935
g384
tp1062
a(I1938
g131
tp1063
a(I1929
g384
tp1064
a(I1936
g384
tp1065
a(I1932
g131
tp1066
a(I1931
g131
tp1067
a(I1934
g600
tp1068
a(I1933
g600
tp1069
a(I1939
g131
tp1070
a(I1932
g600
tp1071
assI33
(dp1072
S'H'
(lp1073
g56
ag154
aS'Ricky'
p1074
ag69
ag164
ag7
ag156
ag159
aS'Randy'
p1075
ag4
ag16
ag162
ag6
aS'Jeffery'
p1076
aS'Tony'
p1077
ag72
aS'Rickey'
p1078
ag959
ag11
ag8
asS'W'
(lp1079
(I1959
g454
tp1080
a(I1960
g454
tp1081
a(I1961
g454
tp1082
a(I1958
g454
tp1083
a(I1962
g454
tp1084
a(I1959
g853
tp1085
a(I1960
g853
tp1086
a(I1959
g126
tp1087
a(I1963
g454
tp1088
a(I1959
g131
tp1089
a(I1961
g853
tp1090
a(I1962
g853
tp1091
a(I1958
g853
tp1092
a(I1959
g204
tp1093
a(I1960
g204
tp1094
a(I1960
g126
tp1095
a(I1959
g210
tp1096
a(I1964
g454
tp1097
a(I1960
g131
tp1098
a(I1962
g131
tp1099
assI34
(dp1100
S'H'
(lp1101
g154
ag153
ag56
ag156
ag1075
aS'Mike'
p1102
ag65
aS'Rick'
p1103
aS'Jeff'
p1104
aS'Steve'
p1105
aS'Tim'
p1106
ag164
ag990
aS'Craig'
p1107
ag161
aS'Greg'
p1108
ag339
ag4
ag8
aS'Brad'
p1109
asS'W'
(lp1110
(I1959
g574
tp1111
a(I1959
g250
tp1112
a(I1960
g250
tp1113
a(I1958
g574
tp1114
a(I1960
g574
tp1115
a(I1961
g250
tp1116
a(I1961
g574
tp1117
a(I1958
g250
tp1118
a(I1960
g180
tp1119
a(I1959
g180
tp1120
a(I1961
g245
tp1121
a(I1962
g250
tp1122
a(I1960
S'WA'
p1123
tp1124
a(I1957
g574
tp1125
a(I1959
g1123
tp1126
a(I1961
g180
tp1127
a(I1959
g245
tp1128
a(I1961
g124
tp1129
a(I1960
g245
tp1130
a(I1960
g124
tp1131
assI35
(dp1132
S'H'
(lp1133
g6
ag11
ag7
ag67
ag12
ag10
ag373
ag9
ag496
ag197
ag13
ag369
ag154
ag366
aS'Samuel'
p1134
ag372
ag4
ag365
ag202
ag22
asS'W'
(lp1135
(I1910
g636
tp1136
a(I1910
S'MD'
p1137
tp1138
a(I1911
g1137
tp1139
a(I1911
g761
tp1140
a(I1927
g636
tp1141
a(I1911
g636
tp1142
a(I1913
g1137
tp1143
a(I1915
g1137
tp1144
a(I1917
g1137
tp1145
a(I1921
g1137
tp1146
a(I1914
g636
tp1147
a(I1916
g1137
tp1148
a(I1914
g1137
tp1149
a(I1919
g1137
tp1150
a(I1912
g761
tp1151
a(I1913
g636
tp1152
a(I1912
g1137
tp1153
a(I1920
g1137
tp1154
a(I1927
g1137
tp1155
a(I1918
g1137
tp1156
assI36
(dp1157
S'H'
(lp1158
g65
ag56
aS'Malik'
p1159
ag66
ag238
ag72
ag154
ag301
aS'Andre'
p1160
aS'Jamal'
p1161
ag55
ag743
ag403
ag61
ag837
ag241
aS'Darius'
p1162
ag57
ag71
ag68
asS'W'
(lp1163
(I1995
g761
tp1164
a(I1996
g761
tp1165
a(I1997
g761
tp1166
a(I1994
g761
tp1167
a(I1998
g761
tp1168
a(I1993
g761
tp1169
a(I1999
g761
tp1170
a(I2000
g761
tp1171
a(I1992
g761
tp1172
a(I1991
g761
tp1173
a(I2001
g761
tp1174
a(I2002
g761
tp1175
a(I2003
g761
tp1176
a(I2004
g761
tp1177
a(I1990
g761
tp1178
a(I2005
g761
tp1179
a(I1987
g761
tp1180
a(I1988
g761
tp1181
a(I2007
g761
tp1182
a(I2008
g761
tp1183
assI37
(dp1184
S'H'
(lp1185
g234
aS'Cole'
p1186
ag113
ag115
ag103
ag111
aS'Blake'
p1187
ag59
ag740
ag70
ag238
aS'Brady'
p1188
ag739
aS'Jackson'
p1189
ag554
ag773
ag58
ag783
aS'Maxwell'
p1190
ag237
asS'W'
(lp1191
(I2000
g166
tp1192
a(I2001
g133
tp1193
a(I2002
g133
tp1194
a(I2002
g166
tp1195
a(I2001
g166
tp1196
a(I2004
g166
tp1197
a(I1999
g166
tp1198
a(I2003
g166
tp1199
a(I2000
g133
tp1200
a(I2003
g133
tp1201
a(I2007
g166
tp1202
a(I2006
g133
tp1203
a(I1998
g166
tp1204
a(I2006
g166
tp1205
a(I2005
g166
tp1206
a(I2004
g133
tp1207
a(I1999
g133
tp1208
ag134
a(I2005
g133
tp1209
a(I1997
g166
tp1210
assI38
(dp1211
S'H'
(lp1212
g812
ag435
ag237
ag110
ag104
ag235
ag231
ag114
ag233
aS'Riley'
p1213
ag1186
aS'Parker'
p1214
aS'Chase'
p1215
ag1017
ag57
ag99
aS'Spencer'
p1216
aS'Skyler'
p1217
ag66
ag240
asS'W'
(lp1218
(I1996
g574
tp1219
a(I1997
g574
tp1220
a(I1999
g574
tp1221
a(I1995
g574
tp1222
a(I1998
g574
tp1223
a(I2000
g574
tp1224
a(I1994
g574
tp1225
a(I1993
g574
tp1226
a(I2001
g574
tp1227
a(I1999
g245
tp1228
a(I1998
g250
tp1229
a(I2000
g250
tp1230
a(I1999
g250
tp1231
a(I1992
g574
tp1232
a(I2002
g245
tp1233
a(I1998
g245
tp1234
a(I2001
g245
tp1235
a(I2002
g574
tp1236
a(I2001
g250
tp1237
a(I1997
g250
tp1238
assI39
(dp1239
S'H'
(lp1240
g4
ag6
ag11
ag9
aS'Stanley'
p1241
ag21
ag8
ag12
aS'Irving'
p1242
ag197
ag365
aS'Bernard'
p1243
ag373
ag527
aS'Seymour'
p1244
ag369
ag314
ag15
ag500
aS'Frederick'
p1245
asS'W'
(lp1246
(I1915
g705
tp1247
a(I1916
g705
tp1248
a(I1917
g705
tp1249
a(I1919
g705
tp1250
a(I1912
g705
tp1251
a(I1918
g705
tp1252
a(I1914
g705
tp1253
a(I1913
g705
tp1254
a(I1920
g705
tp1255
a(I1921
g705
tp1256
a(I1922
g705
tp1257
a(I1923
g705
tp1258
a(I1911
g705
tp1259
a(I1924
g705
tp1260
a(I1925
g705
tp1261
a(I1926
g705
tp1262
a(I1910
g705
tp1263
a(I1927
g705
tp1264
a(I1928
g705
tp1265
a(I1929
g705
tp1266
assI40
(dp1267
S'H'
(lp1268
g56
ag782
aS'Glenn'
p1269
ag157
ag163
ag155
aS'Alan'
p1270
ag16
ag23
aS'Patrick'
p1271
aS'Melvin'
p1272
ag1241
aS'Rodney'
p1273
ag158
ag403
ag72
ag268
aS'Calvin'
p1274
ag932
ag10
asS'W'
(lp1275
(I1946
g663
tp1276
a(I1949
g663
tp1277
a(I1950
g663
tp1278
a(I1951
g663
tp1279
a(I1947
g663
tp1280
a(I1948
g663
tp1281
a(I1945
g663
tp1282
a(I1952
g663
tp1283
a(I1953
g663
tp1284
a(I1954
g663
tp1285
a(I1944
g663
tp1286
a(I1943
g663
tp1287
a(I1955
g663
tp1288
a(I1956
g663
tp1289
a(I1957
g663
tp1290
a(I1958
g663
tp1291
a(I1942
g663
tp1292
a(I1959
g663
tp1293
a(I1962
g663
tp1294
a(I1961
g663
tp1295
assI41
(dp1296
S'H'
(lp1297
g4
ag15
ag773
ag6
ag8
ag472
aS'Bob'
p1298
ag12
ag770
ag7
ag11
ag365
ag21
ag16
ag470
ag194
aS'Dick'
p1299
ag201
ag23
ag14
asS'W'
(lp1300
(I1935
g28
tp1301
a(I1934
g28
tp1302
a(I1928
g28
tp1303
a(I1930
g28
tp1304
a(I1928
g124
tp1305
a(I1929
g1123
tp1306
a(I1927
g1123
tp1307
a(I1930
g1123
tp1308
a(I1932
g1123
tp1309
a(I1928
g1123
tp1310
a(I1931
g1123
tp1311
a(I1929
g124
tp1312
a(I1931
g180
tp1313
a(I1929
g28
tp1314
a(I1934
g124
tp1315
a(I1933
g1123
tp1316
a(I1934
g180
tp1317
a(I1934
g1123
tp1318
a(I1926
g1123
tp1319
a(I1929
g180
tp1320
assI42
(dp1321
S'H'
(lp1322
S'Angel'
p1323
aS'Diego'
p1324
ag871
ag305
ag309
ag57
ag741
aS'Adrian'
p1325
ag298
ag583
aS'Julian'
p1326
ag116
ag591
aS'Santiago'
p1327
aS'Isaac'
p1328
ag64
ag66
ag234
aS'Andres'
p1329
aS'Damian'
p1330
asS'W'
(lp1331
(I2006
g316
tp1332
a(I2007
g316
tp1333
a(I2005
g316
tp1334
a(I2004
g316
tp1335
a(I2008
g316
tp1336
a(I2009
g316
tp1337
a(I2006
g593
tp1338
a(I2003
g316
tp1339
a(I2007
g593
tp1340
a(I2002
g316
tp1341
a(I2005
g593
tp1342
a(I2006
S'AZ'
p1343
tp1344
a(I2008
g593
tp1345
a(I2007
g1343
tp1346
a(I2010
g316
tp1347
a(I2001
g316
tp1348
a(I2011
g316
tp1349
a(I2005
g1343
tp1350
a(I2009
g593
tp1351
a(I2004
g593
tp1352
assI43
(dp1353
S'H'
(lp1354
g55
ag56
ag65
ag7
ag72
ag154
ag68
ag69
aS'Derrick'
p1355
ag403
ag159
ag5
ag153
ag837
ag1273
ag6
ag11
ag162
ag64
ag1076
asS'W'
(lp1356
(I1972
g206
tp1357
a(I1973
g206
tp1358
a(I1975
g206
tp1359
a(I1972
g227
tp1360
a(I1974
g206
tp1361
a(I1976
g206
tp1362
a(I1973
g227
tp1363
a(I1977
g206
tp1364
a(I1972
g210
tp1365
a(I1973
g210
tp1366
a(I1978
g206
tp1367
a(I1974
g227
tp1368
a(I1971
g206
tp1369
a(I1971
g210
tp1370
a(I1975
g227
tp1371
a(I1972
g144
tp1372
a(I1974
g210
tp1373
a(I1972
g204
tp1374
a(I1979
g206
tp1375
a(I1976
g227
tp1376
assI44
(dp1377
S'H'
(lp1378
g434
ag115
ag103
ag110
aS'Owen'
p1379
ag1189
ag739
ag740
ag114
ag113
ag98
ag808
ag811
aS'Cameron'
p1380
aS'Oliver'
p1381
ag554
ag111
ag1214
ag99
ag102
asS'W'
(lp1382
(I2014
g723
tp1383
a(I2014
g282
tp1384
a(I2011
g282
tp1385
a(I2014
g87
tp1386
a(I2013
g87
tp1387
a(I2012
g282
tp1388
a(I2013
g282
tp1389
a(I2010
g282
tp1390
a(I2013
g723
tp1391
a(I2012
g87
tp1392
a(I2011
g87
tp1393
a(I2012
g723
tp1394
a(I2010
g723
tp1395
a(I2011
g723
tp1396
a(I2014
g25
tp1397
a(I2010
g87
tp1398
a(I2009
g282
tp1399
a(I2013
g25
tp1400
a(I2014
g33
tp1401
a(I2014
g166
tp1402
assI45
(dp1403
S'H'
(lp1404
g7
ag6
ag10
ag23
aS'Woodrow'
p1405
ag192
ag773
aS'Luther'
p1406
aS'Clyde'
p1407
ag370
ag12
ag372
ag201
ag193
aS'Hubert'
p1408
ag194
aS'Claude'
p1409
ag555
ag527
aS'Herman'
p1410
asS'W'
(lp1411
(I1916
g131
tp1412
a(I1915
g131
tp1413
a(I1918
g131
tp1414
a(I1912
g853
tp1415
a(I1919
g131
tp1416
a(I1917
g131
tp1417
a(I1917
g126
tp1418
ag389
ag393
a(I1913
g131
tp1419
a(I1915
g853
tp1420
a(I1921
g454
tp1421
ag392
ag394
a(I1917
g853
tp1422
a(I1914
g131
tp1423
a(I1920
g131
tp1424
a(I1915
g454
tp1425
a(I1914
g853
tp1426
a(I1920
g454
tp1427
assI46
(dp1428
S'H'
(lp1429
g300
ag194
ag21
ag8
ag4
aS'Kee'
p1430
aS'Gilbert'
p1431
ag305
ag298
aS'Ruben'
p1432
aS'Rudy'
p1433
ag302
ag307
ag193
ag154
ag202
ag589
ag618
ag1077
ag14
asS'W'
(lp1434
(I1933
g1343
tp1435
a(I1936
g1343
tp1436
a(I1934
g1343
tp1437
a(I1935
g1343
tp1438
a(I1932
g1343
tp1439
a(I1927
g1343
tp1440
a(I1930
g1343
tp1441
a(I1939
g1343
tp1442
a(I1937
g1343
tp1443
a(I1938
g1343
tp1444
a(I1928
g1343
tp1445
a(I1929
g1343
tp1446
a(I1925
g1343
tp1447
a(I1940
g1343
tp1448
a(I1931
g1343
tp1449
a(I1926
g1343
tp1450
a(I1921
g1343
tp1451
a(I1941
g1343
tp1452
a(I1942
g1343
tp1453
a(I1944
g1343
tp1454
assI47
(dp1455
S'H'
(lp1456
g1380
ag57
ag111
ag811
ag1189
ag233
ag6
ag743
ag101
ag55
aS'Jaylen'
p1457
ag234
ag231
ag437
ag116
ag745
ag808
ag740
aS'Peyton'
p1458
aS'Jalen'
p1459
asS'W'
(lp1460
(I2006
g206
tp1461
a(I2005
g206
tp1462
a(I2007
g206
tp1463
a(I2004
g206
tp1464
a(I2003
g206
tp1465
a(I2008
g206
tp1466
a(I2009
g206
tp1467
a(I2007
g210
tp1468
a(I2003
g210
tp1469
a(I2007
g227
tp1470
a(I2004
g210
tp1471
a(I2005
g210
tp1472
a(I2002
g206
tp1473
a(I2006
g210
tp1474
a(I2005
g227
tp1475
a(I2001
g206
tp1476
a(I2006
g227
tp1477
a(I2008
g227
tp1478
a(I2004
g227
tp1479
a(I2010
g206
tp1480
assI48
(dp1481
S'H'
(lp1482
g111
ag808
ag103
ag811
ag236
ag234
ag740
ag57
ag105
ag70
ag871
ag591
ag1380
aS'Seth'
p1483
ag116
ag232
ag1328
ag102
aS'Dawson'
p1484
ag742
asS'W'
(lp1485
(I2002
g124
tp1486
a(I2002
g282
tp1487
a(I2002
g119
tp1488
ag1235
a(I2002
g723
tp1489
a(I2001
g723
tp1490
a(I2003
g245
tp1491
a(I2003
g119
tp1492
a(I2003
g124
tp1493
ag1233
a(I2001
g119
tp1494
a(I2002
g33
tp1495
a(I2000
g124
tp1496
a(I2002
g121
tp1497
a(I2003
g282
tp1498
a(I2001
g33
tp1499
a(I2004
g723
tp1500
a(I2002
g250
tp1501
a(I2004
g33
tp1502
a(I2002
g149
tp1503
assI49
(dp1504
S'H'
(lp1505
g231
ag54
ag58
ag114
ag70
ag236
ag238
ag234
ag57
ag105
ag66
ag53
ag1380
ag60
ag743
ag554
ag56
ag62
ag117
ag1134
asS'W'
(lp1506
(I2001
g25
tp1507
a(I2003
g49
tp1508
a(I2001
g49
tp1509
a(I2004
g49
tp1510
a(I2000
g49
tp1511
a(I2000
g25
tp1512
a(I2003
g87
tp1513
a(I2002
g49
tp1514
a(I2003
g25
tp1515
a(I2003
g79
tp1516
a(I2005
g25
tp1517
a(I2004
g87
tp1518
a(I1999
g49
tp1519
a(I1998
g49
tp1520
a(I2002
g25
tp1521
a(I2004
g25
tp1522
a(I2005
g49
tp1523
a(I2004
g79
tp1524
a(I2001
g79
tp1525
a(I1999
g25
tp1526
assI50
(dp1527
S'H'
(lp1528
g154
ag498
ag13
ag8
ag4
ag158
ag56
ag155
ag160
ag65
ag6
ag782
ag9
ag1270
ag156
ag59
ag14
aS'Dana'
p1529
ag67
ag269
asS'W'
(lp1530
(I1955
g87
tp1531
a(I1930
g33
tp1532
a(I1937
g33
tp1533
a(I1956
g87
tp1534
a(I1954
g87
tp1535
a(I1955
g723
tp1536
a(I1952
g87
tp1537
a(I1954
g49
tp1538
a(I1949
g87
tp1539
a(I1955
g49
tp1540
a(I1955
g25
tp1541
a(I1957
g87
tp1542
a(I1932
g33
tp1543
a(I1953
g49
tp1544
a(I1952
g723
tp1545
a(I1922
g33
tp1546
a(I1952
g49
tp1547
a(I1956
g25
tp1548
a(I1953
g87
tp1549
a(I1951
g49
tp1550
ass.